004001f0 <AddRoundKey>:
  4001f0:	22 00 00 00 	lbu $3,3($5)
  4001f4:	03 00 03 05 
  4001f8:	43 00 00 00 	addiu $29,$29,-8
  4001fc:	f8 ff 1d 1d 
  400200:	30 00 00 00 	sb $3,0($29)
  400204:	00 00 03 1d 
  400208:	26 00 00 00 	lhu $2,2($5)
  40020c:	02 00 02 05 
  400210:	30 00 00 00 	sb $2,1($29)
  400214:	01 00 02 1d 
  400218:	28 00 00 00 	lw $2,0($5)
  40021c:	00 00 02 05 
  400220:	57 00 00 00 	srl $2,$2,0x8
  400224:	08 02 02 00 
  400228:	30 00 00 00 	sb $2,2($29)
  40022c:	02 00 02 1d 
  400230:	28 00 00 00 	lw $2,0($5)
  400234:	00 00 02 05 
  400238:	30 00 00 00 	sb $2,3($29)
  40023c:	03 00 02 1d 
  400240:	22 00 00 00 	lbu $2,0($4)
  400244:	00 00 02 04 
  400248:	52 00 00 00 	xor $2,$2,$3
  40024c:	00 02 03 02 
  400250:	30 00 00 00 	sb $2,0($4)
  400254:	00 00 02 04 
  400258:	22 00 00 00 	lbu $2,4($4)
  40025c:	04 00 02 04 
  400260:	22 00 00 00 	lbu $3,1($29)
  400264:	01 00 03 1d 
  400268:	52 00 00 00 	xor $2,$2,$3
  40026c:	00 02 03 02 
  400270:	30 00 00 00 	sb $2,4($4)
  400274:	04 00 02 04 
  400278:	22 00 00 00 	lbu $2,8($4)
  40027c:	08 00 02 04 
  400280:	22 00 00 00 	lbu $3,2($29)
  400284:	02 00 03 1d 
  400288:	52 00 00 00 	xor $2,$2,$3
  40028c:	00 02 03 02 
  400290:	30 00 00 00 	sb $2,8($4)
  400294:	08 00 02 04 
  400298:	22 00 00 00 	lbu $2,12($4)
  40029c:	0c 00 02 04 
  4002a0:	22 00 00 00 	lbu $3,3($29)
  4002a4:	03 00 03 1d 
  4002a8:	52 00 00 00 	xor $2,$2,$3
  4002ac:	00 02 03 02 
  4002b0:	30 00 00 00 	sb $2,12($4)
  4002b4:	0c 00 02 04 
  4002b8:	22 00 00 00 	lbu $3,7($5)
  4002bc:	07 00 03 05 
  4002c0:	30 00 00 00 	sb $3,0($29)
  4002c4:	00 00 03 1d 
  4002c8:	26 00 00 00 	lhu $2,6($5)
  4002cc:	06 00 02 05 
  4002d0:	30 00 00 00 	sb $2,1($29)
  4002d4:	01 00 02 1d 
  4002d8:	28 00 00 00 	lw $2,4($5)
  4002dc:	04 00 02 05 
  4002e0:	57 00 00 00 	srl $2,$2,0x8
  4002e4:	08 02 02 00 
  4002e8:	30 00 00 00 	sb $2,2($29)
  4002ec:	02 00 02 1d 
  4002f0:	28 00 00 00 	lw $2,4($5)
  4002f4:	04 00 02 05 
  4002f8:	30 00 00 00 	sb $2,3($29)
  4002fc:	03 00 02 1d 
  400300:	22 00 00 00 	lbu $2,1($4)
  400304:	01 00 02 04 
  400308:	52 00 00 00 	xor $2,$2,$3
  40030c:	00 02 03 02 
  400310:	30 00 00 00 	sb $2,1($4)
  400314:	01 00 02 04 
  400318:	22 00 00 00 	lbu $2,5($4)
  40031c:	05 00 02 04 
  400320:	22 00 00 00 	lbu $3,1($29)
  400324:	01 00 03 1d 
  400328:	52 00 00 00 	xor $2,$2,$3
  40032c:	00 02 03 02 
  400330:	30 00 00 00 	sb $2,5($4)
  400334:	05 00 02 04 
  400338:	22 00 00 00 	lbu $2,9($4)
  40033c:	09 00 02 04 
  400340:	22 00 00 00 	lbu $3,2($29)
  400344:	02 00 03 1d 
  400348:	52 00 00 00 	xor $2,$2,$3
  40034c:	00 02 03 02 
  400350:	30 00 00 00 	sb $2,9($4)
  400354:	09 00 02 04 
  400358:	22 00 00 00 	lbu $2,13($4)
  40035c:	0d 00 02 04 
  400360:	22 00 00 00 	lbu $3,3($29)
  400364:	03 00 03 1d 
  400368:	52 00 00 00 	xor $2,$2,$3
  40036c:	00 02 03 02 
  400370:	30 00 00 00 	sb $2,13($4)
  400374:	0d 00 02 04 
  400378:	22 00 00 00 	lbu $3,11($5)
  40037c:	0b 00 03 05 
  400380:	30 00 00 00 	sb $3,0($29)
  400384:	00 00 03 1d 
  400388:	26 00 00 00 	lhu $2,10($5)
  40038c:	0a 00 02 05 
  400390:	30 00 00 00 	sb $2,1($29)
  400394:	01 00 02 1d 
  400398:	28 00 00 00 	lw $2,8($5)
  40039c:	08 00 02 05 
  4003a0:	57 00 00 00 	srl $2,$2,0x8
  4003a4:	08 02 02 00 
  4003a8:	30 00 00 00 	sb $2,2($29)
  4003ac:	02 00 02 1d 
  4003b0:	28 00 00 00 	lw $2,8($5)
  4003b4:	08 00 02 05 
  4003b8:	30 00 00 00 	sb $2,3($29)
  4003bc:	03 00 02 1d 
  4003c0:	22 00 00 00 	lbu $2,2($4)
  4003c4:	02 00 02 04 
  4003c8:	52 00 00 00 	xor $2,$2,$3
  4003cc:	00 02 03 02 
  4003d0:	30 00 00 00 	sb $2,2($4)
  4003d4:	02 00 02 04 
  4003d8:	22 00 00 00 	lbu $2,6($4)
  4003dc:	06 00 02 04 
  4003e0:	22 00 00 00 	lbu $3,1($29)
  4003e4:	01 00 03 1d 
  4003e8:	52 00 00 00 	xor $2,$2,$3
  4003ec:	00 02 03 02 
  4003f0:	30 00 00 00 	sb $2,6($4)
  4003f4:	06 00 02 04 
  4003f8:	22 00 00 00 	lbu $2,10($4)
  4003fc:	0a 00 02 04 
  400400:	22 00 00 00 	lbu $3,2($29)
  400404:	02 00 03 1d 
  400408:	52 00 00 00 	xor $2,$2,$3
  40040c:	00 02 03 02 
  400410:	30 00 00 00 	sb $2,10($4)
  400414:	0a 00 02 04 
  400418:	22 00 00 00 	lbu $2,14($4)
  40041c:	0e 00 02 04 
  400420:	22 00 00 00 	lbu $3,3($29)
  400424:	03 00 03 1d 
  400428:	52 00 00 00 	xor $2,$2,$3
  40042c:	00 02 03 02 
  400430:	30 00 00 00 	sb $2,14($4)
  400434:	0e 00 02 04 
  400438:	22 00 00 00 	lbu $3,15($5)
  40043c:	0f 00 03 05 
  400440:	30 00 00 00 	sb $3,0($29)
  400444:	00 00 03 1d 
  400448:	26 00 00 00 	lhu $2,14($5)
  40044c:	0e 00 02 05 
  400450:	30 00 00 00 	sb $2,1($29)
  400454:	01 00 02 1d 
  400458:	28 00 00 00 	lw $2,12($5)
  40045c:	0c 00 02 05 
  400460:	57 00 00 00 	srl $2,$2,0x8
  400464:	08 02 02 00 
  400468:	30 00 00 00 	sb $2,2($29)
  40046c:	02 00 02 1d 
  400470:	28 00 00 00 	lw $2,12($5)
  400474:	0c 00 02 05 
  400478:	30 00 00 00 	sb $2,3($29)
  40047c:	03 00 02 1d 
  400480:	22 00 00 00 	lbu $2,3($4)
  400484:	03 00 02 04 
  400488:	52 00 00 00 	xor $2,$2,$3
  40048c:	00 02 03 02 
  400490:	30 00 00 00 	sb $2,3($4)
  400494:	03 00 02 04 
  400498:	22 00 00 00 	lbu $2,7($4)
  40049c:	07 00 02 04 
  4004a0:	22 00 00 00 	lbu $3,1($29)
  4004a4:	01 00 03 1d 
  4004a8:	52 00 00 00 	xor $2,$2,$3
  4004ac:	00 02 03 02 
  4004b0:	30 00 00 00 	sb $2,7($4)
  4004b4:	07 00 02 04 
  4004b8:	22 00 00 00 	lbu $2,11($4)
  4004bc:	0b 00 02 04 
  4004c0:	22 00 00 00 	lbu $3,2($29)
  4004c4:	02 00 03 1d 
  4004c8:	52 00 00 00 	xor $2,$2,$3
  4004cc:	00 02 03 02 
  4004d0:	30 00 00 00 	sb $2,11($4)
  4004d4:	0b 00 02 04 
  4004d8:	22 00 00 00 	lbu $2,15($4)
  4004dc:	0f 00 02 04 
  4004e0:	22 00 00 00 	lbu $3,3($29)
  4004e4:	03 00 03 1d 
  4004e8:	52 00 00 00 	xor $2,$2,$3
  4004ec:	00 02 03 02 
  4004f0:	30 00 00 00 	sb $2,15($4)
  4004f4:	0f 00 02 04 
  4004f8:	43 00 00 00 	addiu $29,$29,8
  4004fc:	08 00 1d 1d 
  400500:	03 00 00 00 	jr $31
  400504:	00 00 00 1f 

00400508 <SubBytes>:
  400508:	22 00 00 00 	lbu $3,0($4)
  40050c:	00 00 03 04 
  400510:	a2 00 00 00 	lui $5,4096
  400514:	00 10 05 00 
  400518:	43 00 00 00 	addiu $5,$5,0
  40051c:	00 00 05 05 
  400520:	4f 00 00 00 	andi $2,$3,240
  400524:	f0 00 02 03 
  400528:	42 00 00 00 	addu $2,$2,$5
  40052c:	00 02 05 02 
  400530:	4f 00 00 00 	andi $3,$3,15
  400534:	0f 00 03 03 
  400538:	42 00 00 00 	addu $2,$2,$3
  40053c:	00 02 03 02 
  400540:	22 00 00 00 	lbu $2,0($2)
  400544:	00 00 02 02 
  400548:	22 00 00 00 	lbu $3,1($4)
  40054c:	01 00 03 04 
  400550:	30 00 00 00 	sb $2,0($4)
  400554:	00 00 02 04 
  400558:	4f 00 00 00 	andi $2,$3,240
  40055c:	f0 00 02 03 
  400560:	42 00 00 00 	addu $2,$2,$5
  400564:	00 02 05 02 
  400568:	4f 00 00 00 	andi $3,$3,15
  40056c:	0f 00 03 03 
  400570:	42 00 00 00 	addu $2,$2,$3
  400574:	00 02 03 02 
  400578:	22 00 00 00 	lbu $2,0($2)
  40057c:	00 00 02 02 
  400580:	22 00 00 00 	lbu $3,2($4)
  400584:	02 00 03 04 
  400588:	30 00 00 00 	sb $2,1($4)
  40058c:	01 00 02 04 
  400590:	4f 00 00 00 	andi $2,$3,240
  400594:	f0 00 02 03 
  400598:	42 00 00 00 	addu $2,$2,$5
  40059c:	00 02 05 02 
  4005a0:	4f 00 00 00 	andi $3,$3,15
  4005a4:	0f 00 03 03 
  4005a8:	42 00 00 00 	addu $2,$2,$3
  4005ac:	00 02 03 02 
  4005b0:	22 00 00 00 	lbu $2,0($2)
  4005b4:	00 00 02 02 
  4005b8:	22 00 00 00 	lbu $3,3($4)
  4005bc:	03 00 03 04 
  4005c0:	30 00 00 00 	sb $2,2($4)
  4005c4:	02 00 02 04 
  4005c8:	4f 00 00 00 	andi $2,$3,240
  4005cc:	f0 00 02 03 
  4005d0:	42 00 00 00 	addu $2,$2,$5
  4005d4:	00 02 05 02 
  4005d8:	4f 00 00 00 	andi $3,$3,15
  4005dc:	0f 00 03 03 
  4005e0:	42 00 00 00 	addu $2,$2,$3
  4005e4:	00 02 03 02 
  4005e8:	22 00 00 00 	lbu $2,0($2)
  4005ec:	00 00 02 02 
  4005f0:	22 00 00 00 	lbu $3,4($4)
  4005f4:	04 00 03 04 
  4005f8:	30 00 00 00 	sb $2,3($4)
  4005fc:	03 00 02 04 
  400600:	4f 00 00 00 	andi $2,$3,240
  400604:	f0 00 02 03 
  400608:	42 00 00 00 	addu $2,$2,$5
  40060c:	00 02 05 02 
  400610:	4f 00 00 00 	andi $3,$3,15
  400614:	0f 00 03 03 
  400618:	42 00 00 00 	addu $2,$2,$3
  40061c:	00 02 03 02 
  400620:	22 00 00 00 	lbu $2,0($2)
  400624:	00 00 02 02 
  400628:	22 00 00 00 	lbu $3,5($4)
  40062c:	05 00 03 04 
  400630:	30 00 00 00 	sb $2,4($4)
  400634:	04 00 02 04 
  400638:	4f 00 00 00 	andi $2,$3,240
  40063c:	f0 00 02 03 
  400640:	42 00 00 00 	addu $2,$2,$5
  400644:	00 02 05 02 
  400648:	4f 00 00 00 	andi $3,$3,15
  40064c:	0f 00 03 03 
  400650:	42 00 00 00 	addu $2,$2,$3
  400654:	00 02 03 02 
  400658:	22 00 00 00 	lbu $2,0($2)
  40065c:	00 00 02 02 
  400660:	22 00 00 00 	lbu $3,6($4)
  400664:	06 00 03 04 
  400668:	30 00 00 00 	sb $2,5($4)
  40066c:	05 00 02 04 
  400670:	4f 00 00 00 	andi $2,$3,240
  400674:	f0 00 02 03 
  400678:	42 00 00 00 	addu $2,$2,$5
  40067c:	00 02 05 02 
  400680:	4f 00 00 00 	andi $3,$3,15
  400684:	0f 00 03 03 
  400688:	42 00 00 00 	addu $2,$2,$3
  40068c:	00 02 03 02 
  400690:	22 00 00 00 	lbu $2,0($2)
  400694:	00 00 02 02 
  400698:	22 00 00 00 	lbu $3,7($4)
  40069c:	07 00 03 04 
  4006a0:	30 00 00 00 	sb $2,6($4)
  4006a4:	06 00 02 04 
  4006a8:	4f 00 00 00 	andi $2,$3,240
  4006ac:	f0 00 02 03 
  4006b0:	42 00 00 00 	addu $2,$2,$5
  4006b4:	00 02 05 02 
  4006b8:	4f 00 00 00 	andi $3,$3,15
  4006bc:	0f 00 03 03 
  4006c0:	42 00 00 00 	addu $2,$2,$3
  4006c4:	00 02 03 02 
  4006c8:	22 00 00 00 	lbu $2,0($2)
  4006cc:	00 00 02 02 
  4006d0:	22 00 00 00 	lbu $3,8($4)
  4006d4:	08 00 03 04 
  4006d8:	30 00 00 00 	sb $2,7($4)
  4006dc:	07 00 02 04 
  4006e0:	4f 00 00 00 	andi $2,$3,240
  4006e4:	f0 00 02 03 
  4006e8:	42 00 00 00 	addu $2,$2,$5
  4006ec:	00 02 05 02 
  4006f0:	4f 00 00 00 	andi $3,$3,15
  4006f4:	0f 00 03 03 
  4006f8:	42 00 00 00 	addu $2,$2,$3
  4006fc:	00 02 03 02 
  400700:	22 00 00 00 	lbu $2,0($2)
  400704:	00 00 02 02 
  400708:	22 00 00 00 	lbu $3,9($4)
  40070c:	09 00 03 04 
  400710:	30 00 00 00 	sb $2,8($4)
  400714:	08 00 02 04 
  400718:	4f 00 00 00 	andi $2,$3,240
  40071c:	f0 00 02 03 
  400720:	42 00 00 00 	addu $2,$2,$5
  400724:	00 02 05 02 
  400728:	4f 00 00 00 	andi $3,$3,15
  40072c:	0f 00 03 03 
  400730:	42 00 00 00 	addu $2,$2,$3
  400734:	00 02 03 02 
  400738:	22 00 00 00 	lbu $2,0($2)
  40073c:	00 00 02 02 
  400740:	22 00 00 00 	lbu $3,10($4)
  400744:	0a 00 03 04 
  400748:	30 00 00 00 	sb $2,9($4)
  40074c:	09 00 02 04 
  400750:	4f 00 00 00 	andi $2,$3,240
  400754:	f0 00 02 03 
  400758:	42 00 00 00 	addu $2,$2,$5
  40075c:	00 02 05 02 
  400760:	4f 00 00 00 	andi $3,$3,15
  400764:	0f 00 03 03 
  400768:	42 00 00 00 	addu $2,$2,$3
  40076c:	00 02 03 02 
  400770:	22 00 00 00 	lbu $2,0($2)
  400774:	00 00 02 02 
  400778:	22 00 00 00 	lbu $3,11($4)
  40077c:	0b 00 03 04 
  400780:	30 00 00 00 	sb $2,10($4)
  400784:	0a 00 02 04 
  400788:	4f 00 00 00 	andi $2,$3,240
  40078c:	f0 00 02 03 
  400790:	42 00 00 00 	addu $2,$2,$5
  400794:	00 02 05 02 
  400798:	4f 00 00 00 	andi $3,$3,15
  40079c:	0f 00 03 03 
  4007a0:	42 00 00 00 	addu $2,$2,$3
  4007a4:	00 02 03 02 
  4007a8:	22 00 00 00 	lbu $2,0($2)
  4007ac:	00 00 02 02 
  4007b0:	30 00 00 00 	sb $2,11($4)
  4007b4:	0b 00 02 04 
  4007b8:	22 00 00 00 	lbu $3,12($4)
  4007bc:	0c 00 03 04 
  4007c0:	4f 00 00 00 	andi $2,$3,240
  4007c4:	f0 00 02 03 
  4007c8:	42 00 00 00 	addu $2,$2,$5
  4007cc:	00 02 05 02 
  4007d0:	4f 00 00 00 	andi $3,$3,15
  4007d4:	0f 00 03 03 
  4007d8:	42 00 00 00 	addu $2,$2,$3
  4007dc:	00 02 03 02 
  4007e0:	22 00 00 00 	lbu $2,0($2)
  4007e4:	00 00 02 02 
  4007e8:	22 00 00 00 	lbu $3,13($4)
  4007ec:	0d 00 03 04 
  4007f0:	30 00 00 00 	sb $2,12($4)
  4007f4:	0c 00 02 04 
  4007f8:	4f 00 00 00 	andi $2,$3,240
  4007fc:	f0 00 02 03 
  400800:	42 00 00 00 	addu $2,$2,$5
  400804:	00 02 05 02 
  400808:	4f 00 00 00 	andi $3,$3,15
  40080c:	0f 00 03 03 
  400810:	42 00 00 00 	addu $2,$2,$3
  400814:	00 02 03 02 
  400818:	22 00 00 00 	lbu $2,0($2)
  40081c:	00 00 02 02 
  400820:	22 00 00 00 	lbu $3,14($4)
  400824:	0e 00 03 04 
  400828:	30 00 00 00 	sb $2,13($4)
  40082c:	0d 00 02 04 
  400830:	4f 00 00 00 	andi $2,$3,240
  400834:	f0 00 02 03 
  400838:	42 00 00 00 	addu $2,$2,$5
  40083c:	00 02 05 02 
  400840:	4f 00 00 00 	andi $3,$3,15
  400844:	0f 00 03 03 
  400848:	42 00 00 00 	addu $2,$2,$3
  40084c:	00 02 03 02 
  400850:	22 00 00 00 	lbu $2,0($2)
  400854:	00 00 02 02 
  400858:	22 00 00 00 	lbu $3,15($4)
  40085c:	0f 00 03 04 
  400860:	30 00 00 00 	sb $2,14($4)
  400864:	0e 00 02 04 
  400868:	4f 00 00 00 	andi $2,$3,240
  40086c:	f0 00 02 03 
  400870:	42 00 00 00 	addu $2,$2,$5
  400874:	00 02 05 02 
  400878:	4f 00 00 00 	andi $3,$3,15
  40087c:	0f 00 03 03 
  400880:	42 00 00 00 	addu $2,$2,$3
  400884:	00 02 03 02 
  400888:	22 00 00 00 	lbu $2,0($2)
  40088c:	00 00 02 02 
  400890:	30 00 00 00 	sb $2,15($4)
  400894:	0f 00 02 04 
  400898:	03 00 00 00 	jr $31
  40089c:	00 00 00 1f 

004008a0 <InvSubBytes>:
  4008a0:	22 00 00 00 	lbu $3,0($4)
  4008a4:	00 00 03 04 
  4008a8:	a2 00 00 00 	lui $5,4096
  4008ac:	00 10 05 00 
  4008b0:	43 00 00 00 	addiu $5,$5,256
  4008b4:	00 01 05 05 
  4008b8:	4f 00 00 00 	andi $2,$3,240
  4008bc:	f0 00 02 03 
  4008c0:	42 00 00 00 	addu $2,$2,$5
  4008c4:	00 02 05 02 
  4008c8:	4f 00 00 00 	andi $3,$3,15
  4008cc:	0f 00 03 03 
  4008d0:	42 00 00 00 	addu $2,$2,$3
  4008d4:	00 02 03 02 
  4008d8:	22 00 00 00 	lbu $2,0($2)
  4008dc:	00 00 02 02 
  4008e0:	22 00 00 00 	lbu $3,1($4)
  4008e4:	01 00 03 04 
  4008e8:	30 00 00 00 	sb $2,0($4)
  4008ec:	00 00 02 04 
  4008f0:	4f 00 00 00 	andi $2,$3,240
  4008f4:	f0 00 02 03 
  4008f8:	42 00 00 00 	addu $2,$2,$5
  4008fc:	00 02 05 02 
  400900:	4f 00 00 00 	andi $3,$3,15
  400904:	0f 00 03 03 
  400908:	42 00 00 00 	addu $2,$2,$3
  40090c:	00 02 03 02 
  400910:	22 00 00 00 	lbu $2,0($2)
  400914:	00 00 02 02 
  400918:	22 00 00 00 	lbu $3,2($4)
  40091c:	02 00 03 04 
  400920:	30 00 00 00 	sb $2,1($4)
  400924:	01 00 02 04 
  400928:	4f 00 00 00 	andi $2,$3,240
  40092c:	f0 00 02 03 
  400930:	42 00 00 00 	addu $2,$2,$5
  400934:	00 02 05 02 
  400938:	4f 00 00 00 	andi $3,$3,15
  40093c:	0f 00 03 03 
  400940:	42 00 00 00 	addu $2,$2,$3
  400944:	00 02 03 02 
  400948:	22 00 00 00 	lbu $2,0($2)
  40094c:	00 00 02 02 
  400950:	22 00 00 00 	lbu $3,3($4)
  400954:	03 00 03 04 
  400958:	30 00 00 00 	sb $2,2($4)
  40095c:	02 00 02 04 
  400960:	4f 00 00 00 	andi $2,$3,240
  400964:	f0 00 02 03 
  400968:	42 00 00 00 	addu $2,$2,$5
  40096c:	00 02 05 02 
  400970:	4f 00 00 00 	andi $3,$3,15
  400974:	0f 00 03 03 
  400978:	42 00 00 00 	addu $2,$2,$3
  40097c:	00 02 03 02 
  400980:	22 00 00 00 	lbu $2,0($2)
  400984:	00 00 02 02 
  400988:	22 00 00 00 	lbu $3,4($4)
  40098c:	04 00 03 04 
  400990:	30 00 00 00 	sb $2,3($4)
  400994:	03 00 02 04 
  400998:	4f 00 00 00 	andi $2,$3,240
  40099c:	f0 00 02 03 
  4009a0:	42 00 00 00 	addu $2,$2,$5
  4009a4:	00 02 05 02 
  4009a8:	4f 00 00 00 	andi $3,$3,15
  4009ac:	0f 00 03 03 
  4009b0:	42 00 00 00 	addu $2,$2,$3
  4009b4:	00 02 03 02 
  4009b8:	22 00 00 00 	lbu $2,0($2)
  4009bc:	00 00 02 02 
  4009c0:	22 00 00 00 	lbu $3,5($4)
  4009c4:	05 00 03 04 
  4009c8:	30 00 00 00 	sb $2,4($4)
  4009cc:	04 00 02 04 
  4009d0:	4f 00 00 00 	andi $2,$3,240
  4009d4:	f0 00 02 03 
  4009d8:	42 00 00 00 	addu $2,$2,$5
  4009dc:	00 02 05 02 
  4009e0:	4f 00 00 00 	andi $3,$3,15
  4009e4:	0f 00 03 03 
  4009e8:	42 00 00 00 	addu $2,$2,$3
  4009ec:	00 02 03 02 
  4009f0:	22 00 00 00 	lbu $2,0($2)
  4009f4:	00 00 02 02 
  4009f8:	22 00 00 00 	lbu $3,6($4)
  4009fc:	06 00 03 04 
  400a00:	30 00 00 00 	sb $2,5($4)
  400a04:	05 00 02 04 
  400a08:	4f 00 00 00 	andi $2,$3,240
  400a0c:	f0 00 02 03 
  400a10:	42 00 00 00 	addu $2,$2,$5
  400a14:	00 02 05 02 
  400a18:	4f 00 00 00 	andi $3,$3,15
  400a1c:	0f 00 03 03 
  400a20:	42 00 00 00 	addu $2,$2,$3
  400a24:	00 02 03 02 
  400a28:	22 00 00 00 	lbu $2,0($2)
  400a2c:	00 00 02 02 
  400a30:	22 00 00 00 	lbu $3,7($4)
  400a34:	07 00 03 04 
  400a38:	30 00 00 00 	sb $2,6($4)
  400a3c:	06 00 02 04 
  400a40:	4f 00 00 00 	andi $2,$3,240
  400a44:	f0 00 02 03 
  400a48:	42 00 00 00 	addu $2,$2,$5
  400a4c:	00 02 05 02 
  400a50:	4f 00 00 00 	andi $3,$3,15
  400a54:	0f 00 03 03 
  400a58:	42 00 00 00 	addu $2,$2,$3
  400a5c:	00 02 03 02 
  400a60:	22 00 00 00 	lbu $2,0($2)
  400a64:	00 00 02 02 
  400a68:	22 00 00 00 	lbu $3,8($4)
  400a6c:	08 00 03 04 
  400a70:	30 00 00 00 	sb $2,7($4)
  400a74:	07 00 02 04 
  400a78:	4f 00 00 00 	andi $2,$3,240
  400a7c:	f0 00 02 03 
  400a80:	42 00 00 00 	addu $2,$2,$5
  400a84:	00 02 05 02 
  400a88:	4f 00 00 00 	andi $3,$3,15
  400a8c:	0f 00 03 03 
  400a90:	42 00 00 00 	addu $2,$2,$3
  400a94:	00 02 03 02 
  400a98:	22 00 00 00 	lbu $2,0($2)
  400a9c:	00 00 02 02 
  400aa0:	22 00 00 00 	lbu $3,9($4)
  400aa4:	09 00 03 04 
  400aa8:	30 00 00 00 	sb $2,8($4)
  400aac:	08 00 02 04 
  400ab0:	4f 00 00 00 	andi $2,$3,240
  400ab4:	f0 00 02 03 
  400ab8:	42 00 00 00 	addu $2,$2,$5
  400abc:	00 02 05 02 
  400ac0:	4f 00 00 00 	andi $3,$3,15
  400ac4:	0f 00 03 03 
  400ac8:	42 00 00 00 	addu $2,$2,$3
  400acc:	00 02 03 02 
  400ad0:	22 00 00 00 	lbu $2,0($2)
  400ad4:	00 00 02 02 
  400ad8:	22 00 00 00 	lbu $3,10($4)
  400adc:	0a 00 03 04 
  400ae0:	30 00 00 00 	sb $2,9($4)
  400ae4:	09 00 02 04 
  400ae8:	4f 00 00 00 	andi $2,$3,240
  400aec:	f0 00 02 03 
  400af0:	42 00 00 00 	addu $2,$2,$5
  400af4:	00 02 05 02 
  400af8:	4f 00 00 00 	andi $3,$3,15
  400afc:	0f 00 03 03 
  400b00:	42 00 00 00 	addu $2,$2,$3
  400b04:	00 02 03 02 
  400b08:	22 00 00 00 	lbu $2,0($2)
  400b0c:	00 00 02 02 
  400b10:	22 00 00 00 	lbu $3,11($4)
  400b14:	0b 00 03 04 
  400b18:	30 00 00 00 	sb $2,10($4)
  400b1c:	0a 00 02 04 
  400b20:	4f 00 00 00 	andi $2,$3,240
  400b24:	f0 00 02 03 
  400b28:	42 00 00 00 	addu $2,$2,$5
  400b2c:	00 02 05 02 
  400b30:	4f 00 00 00 	andi $3,$3,15
  400b34:	0f 00 03 03 
  400b38:	42 00 00 00 	addu $2,$2,$3
  400b3c:	00 02 03 02 
  400b40:	22 00 00 00 	lbu $2,0($2)
  400b44:	00 00 02 02 
  400b48:	30 00 00 00 	sb $2,11($4)
  400b4c:	0b 00 02 04 
  400b50:	22 00 00 00 	lbu $3,12($4)
  400b54:	0c 00 03 04 
  400b58:	4f 00 00 00 	andi $2,$3,240
  400b5c:	f0 00 02 03 
  400b60:	42 00 00 00 	addu $2,$2,$5
  400b64:	00 02 05 02 
  400b68:	4f 00 00 00 	andi $3,$3,15
  400b6c:	0f 00 03 03 
  400b70:	42 00 00 00 	addu $2,$2,$3
  400b74:	00 02 03 02 
  400b78:	22 00 00 00 	lbu $2,0($2)
  400b7c:	00 00 02 02 
  400b80:	22 00 00 00 	lbu $3,13($4)
  400b84:	0d 00 03 04 
  400b88:	30 00 00 00 	sb $2,12($4)
  400b8c:	0c 00 02 04 
  400b90:	4f 00 00 00 	andi $2,$3,240
  400b94:	f0 00 02 03 
  400b98:	42 00 00 00 	addu $2,$2,$5
  400b9c:	00 02 05 02 
  400ba0:	4f 00 00 00 	andi $3,$3,15
  400ba4:	0f 00 03 03 
  400ba8:	42 00 00 00 	addu $2,$2,$3
  400bac:	00 02 03 02 
  400bb0:	22 00 00 00 	lbu $2,0($2)
  400bb4:	00 00 02 02 
  400bb8:	22 00 00 00 	lbu $3,14($4)
  400bbc:	0e 00 03 04 
  400bc0:	30 00 00 00 	sb $2,13($4)
  400bc4:	0d 00 02 04 
  400bc8:	4f 00 00 00 	andi $2,$3,240
  400bcc:	f0 00 02 03 
  400bd0:	42 00 00 00 	addu $2,$2,$5
  400bd4:	00 02 05 02 
  400bd8:	4f 00 00 00 	andi $3,$3,15
  400bdc:	0f 00 03 03 
  400be0:	42 00 00 00 	addu $2,$2,$3
  400be4:	00 02 03 02 
  400be8:	22 00 00 00 	lbu $2,0($2)
  400bec:	00 00 02 02 
  400bf0:	22 00 00 00 	lbu $3,15($4)
  400bf4:	0f 00 03 04 
  400bf8:	30 00 00 00 	sb $2,14($4)
  400bfc:	0e 00 02 04 
  400c00:	4f 00 00 00 	andi $2,$3,240
  400c04:	f0 00 02 03 
  400c08:	42 00 00 00 	addu $2,$2,$5
  400c0c:	00 02 05 02 
  400c10:	4f 00 00 00 	andi $3,$3,15
  400c14:	0f 00 03 03 
  400c18:	42 00 00 00 	addu $2,$2,$3
  400c1c:	00 02 03 02 
  400c20:	22 00 00 00 	lbu $2,0($2)
  400c24:	00 00 02 02 
  400c28:	30 00 00 00 	sb $2,15($4)
  400c2c:	0f 00 02 04 
  400c30:	03 00 00 00 	jr $31
  400c34:	00 00 00 1f 

00400c38 <ShiftRows>:
  400c38:	22 00 00 00 	lbu $11,4($4)
  400c3c:	04 00 0b 04 
  400c40:	22 00 00 00 	lbu $9,7($4)
  400c44:	07 00 09 04 
  400c48:	22 00 00 00 	lbu $10,10($4)
  400c4c:	0a 00 0a 04 
  400c50:	22 00 00 00 	lbu $8,11($4)
  400c54:	0b 00 08 04 
  400c58:	22 00 00 00 	lbu $2,5($4)
  400c5c:	05 00 02 04 
  400c60:	22 00 00 00 	lbu $3,6($4)
  400c64:	06 00 03 04 
  400c68:	22 00 00 00 	lbu $7,15($4)
  400c6c:	0f 00 07 04 
  400c70:	22 00 00 00 	lbu $5,14($4)
  400c74:	0e 00 05 04 
  400c78:	22 00 00 00 	lbu $6,13($4)
  400c7c:	0d 00 06 04 
  400c80:	30 00 00 00 	sb $11,7($4)
  400c84:	07 00 0b 04 
  400c88:	22 00 00 00 	lbu $11,8($4)
  400c8c:	08 00 0b 04 
  400c90:	30 00 00 00 	sb $11,10($4)
  400c94:	0a 00 0b 04 
  400c98:	22 00 00 00 	lbu $11,9($4)
  400c9c:	09 00 0b 04 
  400ca0:	30 00 00 00 	sb $11,11($4)
  400ca4:	0b 00 0b 04 
  400ca8:	22 00 00 00 	lbu $11,12($4)
  400cac:	0c 00 0b 04 
  400cb0:	30 00 00 00 	sb $2,4($4)
  400cb4:	04 00 02 04 
  400cb8:	30 00 00 00 	sb $3,5($4)
  400cbc:	05 00 03 04 
  400cc0:	30 00 00 00 	sb $9,6($4)
  400cc4:	06 00 09 04 
  400cc8:	30 00 00 00 	sb $5,15($4)
  400ccc:	0f 00 05 04 
  400cd0:	30 00 00 00 	sb $6,14($4)
  400cd4:	0e 00 06 04 
  400cd8:	30 00 00 00 	sb $10,8($4)
  400cdc:	08 00 0a 04 
  400ce0:	30 00 00 00 	sb $8,9($4)
  400ce4:	09 00 08 04 
  400ce8:	30 00 00 00 	sb $7,12($4)
  400cec:	0c 00 07 04 
  400cf0:	30 00 00 00 	sb $11,13($4)
  400cf4:	0d 00 0b 04 
  400cf8:	03 00 00 00 	jr $31
  400cfc:	00 00 00 1f 

00400d00 <InvShiftRows>:
  400d00:	22 00 00 00 	lbu $11,7($4)
  400d04:	07 00 0b 04 
  400d08:	22 00 00 00 	lbu $9,4($4)
  400d0c:	04 00 09 04 
  400d10:	22 00 00 00 	lbu $10,9($4)
  400d14:	09 00 0a 04 
  400d18:	22 00 00 00 	lbu $8,8($4)
  400d1c:	08 00 08 04 
  400d20:	22 00 00 00 	lbu $2,6($4)
  400d24:	06 00 02 04 
  400d28:	22 00 00 00 	lbu $3,5($4)
  400d2c:	05 00 03 04 
  400d30:	22 00 00 00 	lbu $7,12($4)
  400d34:	0c 00 07 04 
  400d38:	22 00 00 00 	lbu $5,13($4)
  400d3c:	0d 00 05 04 
  400d40:	22 00 00 00 	lbu $6,14($4)
  400d44:	0e 00 06 04 
  400d48:	30 00 00 00 	sb $11,4($4)
  400d4c:	04 00 0b 04 
  400d50:	22 00 00 00 	lbu $11,11($4)
  400d54:	0b 00 0b 04 
  400d58:	30 00 00 00 	sb $11,9($4)
  400d5c:	09 00 0b 04 
  400d60:	22 00 00 00 	lbu $11,10($4)
  400d64:	0a 00 0b 04 
  400d68:	30 00 00 00 	sb $11,8($4)
  400d6c:	08 00 0b 04 
  400d70:	22 00 00 00 	lbu $11,15($4)
  400d74:	0f 00 0b 04 
  400d78:	30 00 00 00 	sb $2,7($4)
  400d7c:	07 00 02 04 
  400d80:	30 00 00 00 	sb $3,6($4)
  400d84:	06 00 03 04 
  400d88:	30 00 00 00 	sb $9,5($4)
  400d8c:	05 00 09 04 
  400d90:	30 00 00 00 	sb $5,12($4)
  400d94:	0c 00 05 04 
  400d98:	30 00 00 00 	sb $6,13($4)
  400d9c:	0d 00 06 04 
  400da0:	30 00 00 00 	sb $10,11($4)
  400da4:	0b 00 0a 04 
  400da8:	30 00 00 00 	sb $8,10($4)
  400dac:	0a 00 08 04 
  400db0:	30 00 00 00 	sb $7,15($4)
  400db4:	0f 00 07 04 
  400db8:	30 00 00 00 	sb $11,14($4)
  400dbc:	0e 00 0b 04 
  400dc0:	03 00 00 00 	jr $31
  400dc4:	00 00 00 1f 

00400dc8 <MixColumns>:
  400dc8:	22 00 00 00 	lbu $3,0($4)
  400dcc:	00 00 03 04 
  400dd0:	43 00 00 00 	addiu $29,$29,-8
  400dd4:	f8 ff 1d 1d 
  400dd8:	30 00 00 00 	sb $3,0($29)
  400ddc:	00 00 03 1d 
  400de0:	22 00 00 00 	lbu $2,4($4)
  400de4:	04 00 02 04 
  400de8:	30 00 00 00 	sb $2,1($29)
  400dec:	01 00 02 1d 
  400df0:	22 00 00 00 	lbu $2,8($4)
  400df4:	08 00 02 04 
  400df8:	30 00 00 00 	sb $2,2($29)
  400dfc:	02 00 02 1d 
  400e00:	22 00 00 00 	lbu $2,12($4)
  400e04:	0c 00 02 04 
  400e08:	30 00 00 00 	sb $2,3($29)
  400e0c:	03 00 02 1d 
  400e10:	55 00 00 00 	sll $2,$3,0x1
  400e14:	01 02 03 00 
  400e18:	42 00 00 00 	addu $2,$2,$3
  400e1c:	00 02 03 02 
  400e20:	55 00 00 00 	sll $2,$2,0x1
  400e24:	01 02 02 00 
  400e28:	a2 00 00 00 	lui $3,4096
  400e2c:	00 10 03 00 
  400e30:	42 00 00 00 	addu $3,$3,$2
  400e34:	00 03 02 03 
  400e38:	22 00 00 00 	lbu $3,688($3)
  400e3c:	b0 02 03 03 
  400e40:	30 00 00 00 	sb $3,0($4)
  400e44:	00 00 03 04 
  400e48:	22 00 00 00 	lbu $5,1($29)
  400e4c:	01 00 05 1d 
  400e50:	55 00 00 00 	sll $2,$5,0x1
  400e54:	01 02 05 00 
  400e58:	42 00 00 00 	addu $2,$2,$5
  400e5c:	00 02 05 02 
  400e60:	55 00 00 00 	sll $2,$2,0x1
  400e64:	01 02 02 00 
  400e68:	a2 00 00 00 	lui $1,4096
  400e6c:	00 10 01 00 
  400e70:	42 00 00 00 	addu $1,$1,$2
  400e74:	00 01 02 01 
  400e78:	22 00 00 00 	lbu $2,689($1)
  400e7c:	b1 02 02 01 
  400e80:	52 00 00 00 	xor $3,$3,$2
  400e84:	00 03 02 03 
  400e88:	30 00 00 00 	sb $3,0($4)
  400e8c:	00 00 03 04 
  400e90:	22 00 00 00 	lbu $2,2($29)
  400e94:	02 00 02 1d 
  400e98:	52 00 00 00 	xor $3,$3,$2
  400e9c:	00 03 02 03 
  400ea0:	30 00 00 00 	sb $3,0($4)
  400ea4:	00 00 03 04 
  400ea8:	22 00 00 00 	lbu $2,3($29)
  400eac:	03 00 02 1d 
  400eb0:	52 00 00 00 	xor $3,$3,$2
  400eb4:	00 03 02 03 
  400eb8:	30 00 00 00 	sb $3,0($4)
  400ebc:	00 00 03 04 
  400ec0:	22 00 00 00 	lbu $3,0($29)
  400ec4:	00 00 03 1d 
  400ec8:	30 00 00 00 	sb $3,4($4)
  400ecc:	04 00 03 04 
  400ed0:	22 00 00 00 	lbu $5,1($29)
  400ed4:	01 00 05 1d 
  400ed8:	55 00 00 00 	sll $2,$5,0x1
  400edc:	01 02 05 00 
  400ee0:	42 00 00 00 	addu $2,$2,$5
  400ee4:	00 02 05 02 
  400ee8:	55 00 00 00 	sll $2,$2,0x1
  400eec:	01 02 02 00 
  400ef0:	a2 00 00 00 	lui $1,4096
  400ef4:	00 10 01 00 
  400ef8:	42 00 00 00 	addu $1,$1,$2
  400efc:	00 01 02 01 
  400f00:	22 00 00 00 	lbu $2,688($1)
  400f04:	b0 02 02 01 
  400f08:	52 00 00 00 	xor $3,$3,$2
  400f0c:	00 03 02 03 
  400f10:	30 00 00 00 	sb $3,4($4)
  400f14:	04 00 03 04 
  400f18:	22 00 00 00 	lbu $5,2($29)
  400f1c:	02 00 05 1d 
  400f20:	55 00 00 00 	sll $2,$5,0x1
  400f24:	01 02 05 00 
  400f28:	42 00 00 00 	addu $2,$2,$5
  400f2c:	00 02 05 02 
  400f30:	55 00 00 00 	sll $2,$2,0x1
  400f34:	01 02 02 00 
  400f38:	a2 00 00 00 	lui $1,4096
  400f3c:	00 10 01 00 
  400f40:	42 00 00 00 	addu $1,$1,$2
  400f44:	00 01 02 01 
  400f48:	22 00 00 00 	lbu $2,689($1)
  400f4c:	b1 02 02 01 
  400f50:	52 00 00 00 	xor $3,$3,$2
  400f54:	00 03 02 03 
  400f58:	30 00 00 00 	sb $3,4($4)
  400f5c:	04 00 03 04 
  400f60:	22 00 00 00 	lbu $2,3($29)
  400f64:	03 00 02 1d 
  400f68:	52 00 00 00 	xor $3,$3,$2
  400f6c:	00 03 02 03 
  400f70:	30 00 00 00 	sb $3,4($4)
  400f74:	04 00 03 04 
  400f78:	22 00 00 00 	lbu $3,0($29)
  400f7c:	00 00 03 1d 
  400f80:	30 00 00 00 	sb $3,8($4)
  400f84:	08 00 03 04 
  400f88:	22 00 00 00 	lbu $2,1($29)
  400f8c:	01 00 02 1d 
  400f90:	52 00 00 00 	xor $3,$3,$2
  400f94:	00 03 02 03 
  400f98:	30 00 00 00 	sb $3,8($4)
  400f9c:	08 00 03 04 
  400fa0:	22 00 00 00 	lbu $5,2($29)
  400fa4:	02 00 05 1d 
  400fa8:	55 00 00 00 	sll $2,$5,0x1
  400fac:	01 02 05 00 
  400fb0:	42 00 00 00 	addu $2,$2,$5
  400fb4:	00 02 05 02 
  400fb8:	55 00 00 00 	sll $2,$2,0x1
  400fbc:	01 02 02 00 
  400fc0:	a2 00 00 00 	lui $1,4096
  400fc4:	00 10 01 00 
  400fc8:	42 00 00 00 	addu $1,$1,$2
  400fcc:	00 01 02 01 
  400fd0:	22 00 00 00 	lbu $2,688($1)
  400fd4:	b0 02 02 01 
  400fd8:	52 00 00 00 	xor $3,$3,$2
  400fdc:	00 03 02 03 
  400fe0:	30 00 00 00 	sb $3,8($4)
  400fe4:	08 00 03 04 
  400fe8:	22 00 00 00 	lbu $5,3($29)
  400fec:	03 00 05 1d 
  400ff0:	55 00 00 00 	sll $2,$5,0x1
  400ff4:	01 02 05 00 
  400ff8:	42 00 00 00 	addu $2,$2,$5
  400ffc:	00 02 05 02 
  401000:	55 00 00 00 	sll $2,$2,0x1
  401004:	01 02 02 00 
  401008:	a2 00 00 00 	lui $1,4096
  40100c:	00 10 01 00 
  401010:	42 00 00 00 	addu $1,$1,$2
  401014:	00 01 02 01 
  401018:	22 00 00 00 	lbu $2,689($1)
  40101c:	b1 02 02 01 
  401020:	52 00 00 00 	xor $3,$3,$2
  401024:	00 03 02 03 
  401028:	30 00 00 00 	sb $3,8($4)
  40102c:	08 00 03 04 
  401030:	22 00 00 00 	lbu $3,0($29)
  401034:	00 00 03 1d 
  401038:	55 00 00 00 	sll $2,$3,0x1
  40103c:	01 02 03 00 
  401040:	42 00 00 00 	addu $2,$2,$3
  401044:	00 02 03 02 
  401048:	55 00 00 00 	sll $2,$2,0x1
  40104c:	01 02 02 00 
  401050:	a2 00 00 00 	lui $3,4096
  401054:	00 10 03 00 
  401058:	42 00 00 00 	addu $3,$3,$2
  40105c:	00 03 02 03 
  401060:	22 00 00 00 	lbu $3,689($3)
  401064:	b1 02 03 03 
  401068:	30 00 00 00 	sb $3,12($4)
  40106c:	0c 00 03 04 
  401070:	22 00 00 00 	lbu $2,1($29)
  401074:	01 00 02 1d 
  401078:	52 00 00 00 	xor $3,$3,$2
  40107c:	00 03 02 03 
  401080:	30 00 00 00 	sb $3,12($4)
  401084:	0c 00 03 04 
  401088:	22 00 00 00 	lbu $2,2($29)
  40108c:	02 00 02 1d 
  401090:	52 00 00 00 	xor $3,$3,$2
  401094:	00 03 02 03 
  401098:	30 00 00 00 	sb $3,12($4)
  40109c:	0c 00 03 04 
  4010a0:	22 00 00 00 	lbu $5,3($29)
  4010a4:	03 00 05 1d 
  4010a8:	55 00 00 00 	sll $2,$5,0x1
  4010ac:	01 02 05 00 
  4010b0:	42 00 00 00 	addu $2,$2,$5
  4010b4:	00 02 05 02 
  4010b8:	55 00 00 00 	sll $2,$2,0x1
  4010bc:	01 02 02 00 
  4010c0:	a2 00 00 00 	lui $1,4096
  4010c4:	00 10 01 00 
  4010c8:	42 00 00 00 	addu $1,$1,$2
  4010cc:	00 01 02 01 
  4010d0:	22 00 00 00 	lbu $2,688($1)
  4010d4:	b0 02 02 01 
  4010d8:	22 00 00 00 	lbu $5,1($4)
  4010dc:	01 00 05 04 
  4010e0:	52 00 00 00 	xor $3,$3,$2
  4010e4:	00 03 02 03 
  4010e8:	30 00 00 00 	sb $3,12($4)
  4010ec:	0c 00 03 04 
  4010f0:	30 00 00 00 	sb $5,0($29)
  4010f4:	00 00 05 1d 
  4010f8:	22 00 00 00 	lbu $2,5($4)
  4010fc:	05 00 02 04 
  401100:	30 00 00 00 	sb $2,1($29)
  401104:	01 00 02 1d 
  401108:	22 00 00 00 	lbu $2,9($4)
  40110c:	09 00 02 04 
  401110:	30 00 00 00 	sb $2,2($29)
  401114:	02 00 02 1d 
  401118:	22 00 00 00 	lbu $2,13($4)
  40111c:	0d 00 02 04 
  401120:	30 00 00 00 	sb $2,3($29)
  401124:	03 00 02 1d 
  401128:	55 00 00 00 	sll $2,$5,0x1
  40112c:	01 02 05 00 
  401130:	42 00 00 00 	addu $2,$2,$5
  401134:	00 02 05 02 
  401138:	55 00 00 00 	sll $2,$2,0x1
  40113c:	01 02 02 00 
  401140:	a2 00 00 00 	lui $3,4096
  401144:	00 10 03 00 
  401148:	42 00 00 00 	addu $3,$3,$2
  40114c:	00 03 02 03 
  401150:	22 00 00 00 	lbu $3,688($3)
  401154:	b0 02 03 03 
  401158:	30 00 00 00 	sb $3,1($4)
  40115c:	01 00 03 04 
  401160:	22 00 00 00 	lbu $5,1($29)
  401164:	01 00 05 1d 
  401168:	55 00 00 00 	sll $2,$5,0x1
  40116c:	01 02 05 00 
  401170:	42 00 00 00 	addu $2,$2,$5
  401174:	00 02 05 02 
  401178:	55 00 00 00 	sll $2,$2,0x1
  40117c:	01 02 02 00 
  401180:	a2 00 00 00 	lui $1,4096
  401184:	00 10 01 00 
  401188:	42 00 00 00 	addu $1,$1,$2
  40118c:	00 01 02 01 
  401190:	22 00 00 00 	lbu $2,689($1)
  401194:	b1 02 02 01 
  401198:	52 00 00 00 	xor $3,$3,$2
  40119c:	00 03 02 03 
  4011a0:	30 00 00 00 	sb $3,1($4)
  4011a4:	01 00 03 04 
  4011a8:	22 00 00 00 	lbu $2,2($29)
  4011ac:	02 00 02 1d 
  4011b0:	52 00 00 00 	xor $3,$3,$2
  4011b4:	00 03 02 03 
  4011b8:	30 00 00 00 	sb $3,1($4)
  4011bc:	01 00 03 04 
  4011c0:	22 00 00 00 	lbu $2,3($29)
  4011c4:	03 00 02 1d 
  4011c8:	52 00 00 00 	xor $3,$3,$2
  4011cc:	00 03 02 03 
  4011d0:	30 00 00 00 	sb $3,1($4)
  4011d4:	01 00 03 04 
  4011d8:	22 00 00 00 	lbu $3,0($29)
  4011dc:	00 00 03 1d 
  4011e0:	30 00 00 00 	sb $3,5($4)
  4011e4:	05 00 03 04 
  4011e8:	22 00 00 00 	lbu $5,1($29)
  4011ec:	01 00 05 1d 
  4011f0:	55 00 00 00 	sll $2,$5,0x1
  4011f4:	01 02 05 00 
  4011f8:	42 00 00 00 	addu $2,$2,$5
  4011fc:	00 02 05 02 
  401200:	55 00 00 00 	sll $2,$2,0x1
  401204:	01 02 02 00 
  401208:	a2 00 00 00 	lui $1,4096
  40120c:	00 10 01 00 
  401210:	42 00 00 00 	addu $1,$1,$2
  401214:	00 01 02 01 
  401218:	22 00 00 00 	lbu $2,688($1)
  40121c:	b0 02 02 01 
  401220:	52 00 00 00 	xor $3,$3,$2
  401224:	00 03 02 03 
  401228:	30 00 00 00 	sb $3,5($4)
  40122c:	05 00 03 04 
  401230:	22 00 00 00 	lbu $5,2($29)
  401234:	02 00 05 1d 
  401238:	55 00 00 00 	sll $2,$5,0x1
  40123c:	01 02 05 00 
  401240:	42 00 00 00 	addu $2,$2,$5
  401244:	00 02 05 02 
  401248:	55 00 00 00 	sll $2,$2,0x1
  40124c:	01 02 02 00 
  401250:	a2 00 00 00 	lui $1,4096
  401254:	00 10 01 00 
  401258:	42 00 00 00 	addu $1,$1,$2
  40125c:	00 01 02 01 
  401260:	22 00 00 00 	lbu $2,689($1)
  401264:	b1 02 02 01 
  401268:	52 00 00 00 	xor $3,$3,$2
  40126c:	00 03 02 03 
  401270:	30 00 00 00 	sb $3,5($4)
  401274:	05 00 03 04 
  401278:	22 00 00 00 	lbu $2,3($29)
  40127c:	03 00 02 1d 
  401280:	52 00 00 00 	xor $3,$3,$2
  401284:	00 03 02 03 
  401288:	30 00 00 00 	sb $3,5($4)
  40128c:	05 00 03 04 
  401290:	22 00 00 00 	lbu $3,0($29)
  401294:	00 00 03 1d 
  401298:	30 00 00 00 	sb $3,9($4)
  40129c:	09 00 03 04 
  4012a0:	22 00 00 00 	lbu $2,1($29)
  4012a4:	01 00 02 1d 
  4012a8:	52 00 00 00 	xor $3,$3,$2
  4012ac:	00 03 02 03 
  4012b0:	30 00 00 00 	sb $3,9($4)
  4012b4:	09 00 03 04 
  4012b8:	22 00 00 00 	lbu $5,2($29)
  4012bc:	02 00 05 1d 
  4012c0:	55 00 00 00 	sll $2,$5,0x1
  4012c4:	01 02 05 00 
  4012c8:	42 00 00 00 	addu $2,$2,$5
  4012cc:	00 02 05 02 
  4012d0:	55 00 00 00 	sll $2,$2,0x1
  4012d4:	01 02 02 00 
  4012d8:	a2 00 00 00 	lui $1,4096
  4012dc:	00 10 01 00 
  4012e0:	42 00 00 00 	addu $1,$1,$2
  4012e4:	00 01 02 01 
  4012e8:	22 00 00 00 	lbu $2,688($1)
  4012ec:	b0 02 02 01 
  4012f0:	52 00 00 00 	xor $3,$3,$2
  4012f4:	00 03 02 03 
  4012f8:	30 00 00 00 	sb $3,9($4)
  4012fc:	09 00 03 04 
  401300:	22 00 00 00 	lbu $5,3($29)
  401304:	03 00 05 1d 
  401308:	55 00 00 00 	sll $2,$5,0x1
  40130c:	01 02 05 00 
  401310:	42 00 00 00 	addu $2,$2,$5
  401314:	00 02 05 02 
  401318:	55 00 00 00 	sll $2,$2,0x1
  40131c:	01 02 02 00 
  401320:	a2 00 00 00 	lui $1,4096
  401324:	00 10 01 00 
  401328:	42 00 00 00 	addu $1,$1,$2
  40132c:	00 01 02 01 
  401330:	22 00 00 00 	lbu $2,689($1)
  401334:	b1 02 02 01 
  401338:	52 00 00 00 	xor $3,$3,$2
  40133c:	00 03 02 03 
  401340:	30 00 00 00 	sb $3,9($4)
  401344:	09 00 03 04 
  401348:	22 00 00 00 	lbu $3,0($29)
  40134c:	00 00 03 1d 
  401350:	55 00 00 00 	sll $2,$3,0x1
  401354:	01 02 03 00 
  401358:	42 00 00 00 	addu $2,$2,$3
  40135c:	00 02 03 02 
  401360:	55 00 00 00 	sll $2,$2,0x1
  401364:	01 02 02 00 
  401368:	a2 00 00 00 	lui $3,4096
  40136c:	00 10 03 00 
  401370:	42 00 00 00 	addu $3,$3,$2
  401374:	00 03 02 03 
  401378:	22 00 00 00 	lbu $3,689($3)
  40137c:	b1 02 03 03 
  401380:	30 00 00 00 	sb $3,13($4)
  401384:	0d 00 03 04 
  401388:	22 00 00 00 	lbu $2,1($29)
  40138c:	01 00 02 1d 
  401390:	52 00 00 00 	xor $3,$3,$2
  401394:	00 03 02 03 
  401398:	30 00 00 00 	sb $3,13($4)
  40139c:	0d 00 03 04 
  4013a0:	22 00 00 00 	lbu $2,2($29)
  4013a4:	02 00 02 1d 
  4013a8:	52 00 00 00 	xor $3,$3,$2
  4013ac:	00 03 02 03 
  4013b0:	30 00 00 00 	sb $3,13($4)
  4013b4:	0d 00 03 04 
  4013b8:	22 00 00 00 	lbu $5,3($29)
  4013bc:	03 00 05 1d 
  4013c0:	55 00 00 00 	sll $2,$5,0x1
  4013c4:	01 02 05 00 
  4013c8:	42 00 00 00 	addu $2,$2,$5
  4013cc:	00 02 05 02 
  4013d0:	55 00 00 00 	sll $2,$2,0x1
  4013d4:	01 02 02 00 
  4013d8:	a2 00 00 00 	lui $1,4096
  4013dc:	00 10 01 00 
  4013e0:	42 00 00 00 	addu $1,$1,$2
  4013e4:	00 01 02 01 
  4013e8:	22 00 00 00 	lbu $2,688($1)
  4013ec:	b0 02 02 01 
  4013f0:	22 00 00 00 	lbu $5,2($4)
  4013f4:	02 00 05 04 
  4013f8:	52 00 00 00 	xor $3,$3,$2
  4013fc:	00 03 02 03 
  401400:	30 00 00 00 	sb $3,13($4)
  401404:	0d 00 03 04 
  401408:	30 00 00 00 	sb $5,0($29)
  40140c:	00 00 05 1d 
  401410:	22 00 00 00 	lbu $2,6($4)
  401414:	06 00 02 04 
  401418:	30 00 00 00 	sb $2,1($29)
  40141c:	01 00 02 1d 
  401420:	22 00 00 00 	lbu $2,10($4)
  401424:	0a 00 02 04 
  401428:	30 00 00 00 	sb $2,2($29)
  40142c:	02 00 02 1d 
  401430:	22 00 00 00 	lbu $2,14($4)
  401434:	0e 00 02 04 
  401438:	30 00 00 00 	sb $2,3($29)
  40143c:	03 00 02 1d 
  401440:	55 00 00 00 	sll $2,$5,0x1
  401444:	01 02 05 00 
  401448:	42 00 00 00 	addu $2,$2,$5
  40144c:	00 02 05 02 
  401450:	55 00 00 00 	sll $2,$2,0x1
  401454:	01 02 02 00 
  401458:	a2 00 00 00 	lui $3,4096
  40145c:	00 10 03 00 
  401460:	42 00 00 00 	addu $3,$3,$2
  401464:	00 03 02 03 
  401468:	22 00 00 00 	lbu $3,688($3)
  40146c:	b0 02 03 03 
  401470:	30 00 00 00 	sb $3,2($4)
  401474:	02 00 03 04 
  401478:	22 00 00 00 	lbu $5,1($29)
  40147c:	01 00 05 1d 
  401480:	55 00 00 00 	sll $2,$5,0x1
  401484:	01 02 05 00 
  401488:	42 00 00 00 	addu $2,$2,$5
  40148c:	00 02 05 02 
  401490:	55 00 00 00 	sll $2,$2,0x1
  401494:	01 02 02 00 
  401498:	a2 00 00 00 	lui $1,4096
  40149c:	00 10 01 00 
  4014a0:	42 00 00 00 	addu $1,$1,$2
  4014a4:	00 01 02 01 
  4014a8:	22 00 00 00 	lbu $2,689($1)
  4014ac:	b1 02 02 01 
  4014b0:	52 00 00 00 	xor $3,$3,$2
  4014b4:	00 03 02 03 
  4014b8:	30 00 00 00 	sb $3,2($4)
  4014bc:	02 00 03 04 
  4014c0:	22 00 00 00 	lbu $2,2($29)
  4014c4:	02 00 02 1d 
  4014c8:	52 00 00 00 	xor $3,$3,$2
  4014cc:	00 03 02 03 
  4014d0:	30 00 00 00 	sb $3,2($4)
  4014d4:	02 00 03 04 
  4014d8:	22 00 00 00 	lbu $2,3($29)
  4014dc:	03 00 02 1d 
  4014e0:	52 00 00 00 	xor $3,$3,$2
  4014e4:	00 03 02 03 
  4014e8:	30 00 00 00 	sb $3,2($4)
  4014ec:	02 00 03 04 
  4014f0:	22 00 00 00 	lbu $3,0($29)
  4014f4:	00 00 03 1d 
  4014f8:	30 00 00 00 	sb $3,6($4)
  4014fc:	06 00 03 04 
  401500:	22 00 00 00 	lbu $5,1($29)
  401504:	01 00 05 1d 
  401508:	55 00 00 00 	sll $2,$5,0x1
  40150c:	01 02 05 00 
  401510:	42 00 00 00 	addu $2,$2,$5
  401514:	00 02 05 02 
  401518:	55 00 00 00 	sll $2,$2,0x1
  40151c:	01 02 02 00 
  401520:	a2 00 00 00 	lui $1,4096
  401524:	00 10 01 00 
  401528:	42 00 00 00 	addu $1,$1,$2
  40152c:	00 01 02 01 
  401530:	22 00 00 00 	lbu $2,688($1)
  401534:	b0 02 02 01 
  401538:	52 00 00 00 	xor $3,$3,$2
  40153c:	00 03 02 03 
  401540:	30 00 00 00 	sb $3,6($4)
  401544:	06 00 03 04 
  401548:	22 00 00 00 	lbu $5,2($29)
  40154c:	02 00 05 1d 
  401550:	55 00 00 00 	sll $2,$5,0x1
  401554:	01 02 05 00 
  401558:	42 00 00 00 	addu $2,$2,$5
  40155c:	00 02 05 02 
  401560:	55 00 00 00 	sll $2,$2,0x1
  401564:	01 02 02 00 
  401568:	a2 00 00 00 	lui $1,4096
  40156c:	00 10 01 00 
  401570:	42 00 00 00 	addu $1,$1,$2
  401574:	00 01 02 01 
  401578:	22 00 00 00 	lbu $2,689($1)
  40157c:	b1 02 02 01 
  401580:	52 00 00 00 	xor $3,$3,$2
  401584:	00 03 02 03 
  401588:	30 00 00 00 	sb $3,6($4)
  40158c:	06 00 03 04 
  401590:	22 00 00 00 	lbu $2,3($29)
  401594:	03 00 02 1d 
  401598:	52 00 00 00 	xor $3,$3,$2
  40159c:	00 03 02 03 
  4015a0:	30 00 00 00 	sb $3,6($4)
  4015a4:	06 00 03 04 
  4015a8:	22 00 00 00 	lbu $3,0($29)
  4015ac:	00 00 03 1d 
  4015b0:	30 00 00 00 	sb $3,10($4)
  4015b4:	0a 00 03 04 
  4015b8:	22 00 00 00 	lbu $2,1($29)
  4015bc:	01 00 02 1d 
  4015c0:	52 00 00 00 	xor $3,$3,$2
  4015c4:	00 03 02 03 
  4015c8:	30 00 00 00 	sb $3,10($4)
  4015cc:	0a 00 03 04 
  4015d0:	22 00 00 00 	lbu $5,2($29)
  4015d4:	02 00 05 1d 
  4015d8:	55 00 00 00 	sll $2,$5,0x1
  4015dc:	01 02 05 00 
  4015e0:	42 00 00 00 	addu $2,$2,$5
  4015e4:	00 02 05 02 
  4015e8:	55 00 00 00 	sll $2,$2,0x1
  4015ec:	01 02 02 00 
  4015f0:	a2 00 00 00 	lui $1,4096
  4015f4:	00 10 01 00 
  4015f8:	42 00 00 00 	addu $1,$1,$2
  4015fc:	00 01 02 01 
  401600:	22 00 00 00 	lbu $2,688($1)
  401604:	b0 02 02 01 
  401608:	52 00 00 00 	xor $3,$3,$2
  40160c:	00 03 02 03 
  401610:	30 00 00 00 	sb $3,10($4)
  401614:	0a 00 03 04 
  401618:	22 00 00 00 	lbu $5,3($29)
  40161c:	03 00 05 1d 
  401620:	55 00 00 00 	sll $2,$5,0x1
  401624:	01 02 05 00 
  401628:	42 00 00 00 	addu $2,$2,$5
  40162c:	00 02 05 02 
  401630:	55 00 00 00 	sll $2,$2,0x1
  401634:	01 02 02 00 
  401638:	a2 00 00 00 	lui $1,4096
  40163c:	00 10 01 00 
  401640:	42 00 00 00 	addu $1,$1,$2
  401644:	00 01 02 01 
  401648:	22 00 00 00 	lbu $2,689($1)
  40164c:	b1 02 02 01 
  401650:	52 00 00 00 	xor $3,$3,$2
  401654:	00 03 02 03 
  401658:	30 00 00 00 	sb $3,10($4)
  40165c:	0a 00 03 04 
  401660:	22 00 00 00 	lbu $3,0($29)
  401664:	00 00 03 1d 
  401668:	55 00 00 00 	sll $2,$3,0x1
  40166c:	01 02 03 00 
  401670:	42 00 00 00 	addu $2,$2,$3
  401674:	00 02 03 02 
  401678:	55 00 00 00 	sll $2,$2,0x1
  40167c:	01 02 02 00 
  401680:	a2 00 00 00 	lui $3,4096
  401684:	00 10 03 00 
  401688:	42 00 00 00 	addu $3,$3,$2
  40168c:	00 03 02 03 
  401690:	22 00 00 00 	lbu $3,689($3)
  401694:	b1 02 03 03 
  401698:	30 00 00 00 	sb $3,14($4)
  40169c:	0e 00 03 04 
  4016a0:	22 00 00 00 	lbu $2,1($29)
  4016a4:	01 00 02 1d 
  4016a8:	52 00 00 00 	xor $3,$3,$2
  4016ac:	00 03 02 03 
  4016b0:	30 00 00 00 	sb $3,14($4)
  4016b4:	0e 00 03 04 
  4016b8:	22 00 00 00 	lbu $2,2($29)
  4016bc:	02 00 02 1d 
  4016c0:	52 00 00 00 	xor $3,$3,$2
  4016c4:	00 03 02 03 
  4016c8:	30 00 00 00 	sb $3,14($4)
  4016cc:	0e 00 03 04 
  4016d0:	22 00 00 00 	lbu $5,3($29)
  4016d4:	03 00 05 1d 
  4016d8:	55 00 00 00 	sll $2,$5,0x1
  4016dc:	01 02 05 00 
  4016e0:	42 00 00 00 	addu $2,$2,$5
  4016e4:	00 02 05 02 
  4016e8:	55 00 00 00 	sll $2,$2,0x1
  4016ec:	01 02 02 00 
  4016f0:	a2 00 00 00 	lui $1,4096
  4016f4:	00 10 01 00 
  4016f8:	42 00 00 00 	addu $1,$1,$2
  4016fc:	00 01 02 01 
  401700:	22 00 00 00 	lbu $2,688($1)
  401704:	b0 02 02 01 
  401708:	22 00 00 00 	lbu $5,3($4)
  40170c:	03 00 05 04 
  401710:	52 00 00 00 	xor $3,$3,$2
  401714:	00 03 02 03 
  401718:	30 00 00 00 	sb $3,14($4)
  40171c:	0e 00 03 04 
  401720:	30 00 00 00 	sb $5,0($29)
  401724:	00 00 05 1d 
  401728:	22 00 00 00 	lbu $2,7($4)
  40172c:	07 00 02 04 
  401730:	30 00 00 00 	sb $2,1($29)
  401734:	01 00 02 1d 
  401738:	22 00 00 00 	lbu $2,11($4)
  40173c:	0b 00 02 04 
  401740:	30 00 00 00 	sb $2,2($29)
  401744:	02 00 02 1d 
  401748:	22 00 00 00 	lbu $2,15($4)
  40174c:	0f 00 02 04 
  401750:	30 00 00 00 	sb $2,3($29)
  401754:	03 00 02 1d 
  401758:	55 00 00 00 	sll $2,$5,0x1
  40175c:	01 02 05 00 
  401760:	42 00 00 00 	addu $2,$2,$5
  401764:	00 02 05 02 
  401768:	55 00 00 00 	sll $2,$2,0x1
  40176c:	01 02 02 00 
  401770:	a2 00 00 00 	lui $3,4096
  401774:	00 10 03 00 
  401778:	42 00 00 00 	addu $3,$3,$2
  40177c:	00 03 02 03 
  401780:	22 00 00 00 	lbu $3,688($3)
  401784:	b0 02 03 03 
  401788:	30 00 00 00 	sb $3,3($4)
  40178c:	03 00 03 04 
  401790:	22 00 00 00 	lbu $5,1($29)
  401794:	01 00 05 1d 
  401798:	55 00 00 00 	sll $2,$5,0x1
  40179c:	01 02 05 00 
  4017a0:	42 00 00 00 	addu $2,$2,$5
  4017a4:	00 02 05 02 
  4017a8:	55 00 00 00 	sll $2,$2,0x1
  4017ac:	01 02 02 00 
  4017b0:	a2 00 00 00 	lui $1,4096
  4017b4:	00 10 01 00 
  4017b8:	42 00 00 00 	addu $1,$1,$2
  4017bc:	00 01 02 01 
  4017c0:	22 00 00 00 	lbu $2,689($1)
  4017c4:	b1 02 02 01 
  4017c8:	52 00 00 00 	xor $3,$3,$2
  4017cc:	00 03 02 03 
  4017d0:	30 00 00 00 	sb $3,3($4)
  4017d4:	03 00 03 04 
  4017d8:	22 00 00 00 	lbu $2,2($29)
  4017dc:	02 00 02 1d 
  4017e0:	52 00 00 00 	xor $3,$3,$2
  4017e4:	00 03 02 03 
  4017e8:	30 00 00 00 	sb $3,3($4)
  4017ec:	03 00 03 04 
  4017f0:	22 00 00 00 	lbu $2,3($29)
  4017f4:	03 00 02 1d 
  4017f8:	52 00 00 00 	xor $3,$3,$2
  4017fc:	00 03 02 03 
  401800:	30 00 00 00 	sb $3,3($4)
  401804:	03 00 03 04 
  401808:	22 00 00 00 	lbu $3,0($29)
  40180c:	00 00 03 1d 
  401810:	30 00 00 00 	sb $3,7($4)
  401814:	07 00 03 04 
  401818:	22 00 00 00 	lbu $5,1($29)
  40181c:	01 00 05 1d 
  401820:	55 00 00 00 	sll $2,$5,0x1
  401824:	01 02 05 00 
  401828:	42 00 00 00 	addu $2,$2,$5
  40182c:	00 02 05 02 
  401830:	55 00 00 00 	sll $2,$2,0x1
  401834:	01 02 02 00 
  401838:	a2 00 00 00 	lui $1,4096
  40183c:	00 10 01 00 
  401840:	42 00 00 00 	addu $1,$1,$2
  401844:	00 01 02 01 
  401848:	22 00 00 00 	lbu $2,688($1)
  40184c:	b0 02 02 01 
  401850:	52 00 00 00 	xor $3,$3,$2
  401854:	00 03 02 03 
  401858:	30 00 00 00 	sb $3,7($4)
  40185c:	07 00 03 04 
  401860:	22 00 00 00 	lbu $5,2($29)
  401864:	02 00 05 1d 
  401868:	55 00 00 00 	sll $2,$5,0x1
  40186c:	01 02 05 00 
  401870:	42 00 00 00 	addu $2,$2,$5
  401874:	00 02 05 02 
  401878:	55 00 00 00 	sll $2,$2,0x1
  40187c:	01 02 02 00 
  401880:	a2 00 00 00 	lui $1,4096
  401884:	00 10 01 00 
  401888:	42 00 00 00 	addu $1,$1,$2
  40188c:	00 01 02 01 
  401890:	22 00 00 00 	lbu $2,689($1)
  401894:	b1 02 02 01 
  401898:	52 00 00 00 	xor $3,$3,$2
  40189c:	00 03 02 03 
  4018a0:	30 00 00 00 	sb $3,7($4)
  4018a4:	07 00 03 04 
  4018a8:	22 00 00 00 	lbu $2,3($29)
  4018ac:	03 00 02 1d 
  4018b0:	52 00 00 00 	xor $3,$3,$2
  4018b4:	00 03 02 03 
  4018b8:	30 00 00 00 	sb $3,7($4)
  4018bc:	07 00 03 04 
  4018c0:	22 00 00 00 	lbu $3,0($29)
  4018c4:	00 00 03 1d 
  4018c8:	30 00 00 00 	sb $3,11($4)
  4018cc:	0b 00 03 04 
  4018d0:	22 00 00 00 	lbu $2,1($29)
  4018d4:	01 00 02 1d 
  4018d8:	52 00 00 00 	xor $3,$3,$2
  4018dc:	00 03 02 03 
  4018e0:	30 00 00 00 	sb $3,11($4)
  4018e4:	0b 00 03 04 
  4018e8:	22 00 00 00 	lbu $5,2($29)
  4018ec:	02 00 05 1d 
  4018f0:	55 00 00 00 	sll $2,$5,0x1
  4018f4:	01 02 05 00 
  4018f8:	42 00 00 00 	addu $2,$2,$5
  4018fc:	00 02 05 02 
  401900:	55 00 00 00 	sll $2,$2,0x1
  401904:	01 02 02 00 
  401908:	a2 00 00 00 	lui $1,4096
  40190c:	00 10 01 00 
  401910:	42 00 00 00 	addu $1,$1,$2
  401914:	00 01 02 01 
  401918:	22 00 00 00 	lbu $2,688($1)
  40191c:	b0 02 02 01 
  401920:	52 00 00 00 	xor $3,$3,$2
  401924:	00 03 02 03 
  401928:	30 00 00 00 	sb $3,11($4)
  40192c:	0b 00 03 04 
  401930:	22 00 00 00 	lbu $5,3($29)
  401934:	03 00 05 1d 
  401938:	55 00 00 00 	sll $2,$5,0x1
  40193c:	01 02 05 00 
  401940:	42 00 00 00 	addu $2,$2,$5
  401944:	00 02 05 02 
  401948:	55 00 00 00 	sll $2,$2,0x1
  40194c:	01 02 02 00 
  401950:	a2 00 00 00 	lui $1,4096
  401954:	00 10 01 00 
  401958:	42 00 00 00 	addu $1,$1,$2
  40195c:	00 01 02 01 
  401960:	22 00 00 00 	lbu $2,689($1)
  401964:	b1 02 02 01 
  401968:	52 00 00 00 	xor $3,$3,$2
  40196c:	00 03 02 03 
  401970:	30 00 00 00 	sb $3,11($4)
  401974:	0b 00 03 04 
  401978:	22 00 00 00 	lbu $3,0($29)
  40197c:	00 00 03 1d 
  401980:	55 00 00 00 	sll $2,$3,0x1
  401984:	01 02 03 00 
  401988:	42 00 00 00 	addu $2,$2,$3
  40198c:	00 02 03 02 
  401990:	55 00 00 00 	sll $2,$2,0x1
  401994:	01 02 02 00 
  401998:	a2 00 00 00 	lui $3,4096
  40199c:	00 10 03 00 
  4019a0:	42 00 00 00 	addu $3,$3,$2
  4019a4:	00 03 02 03 
  4019a8:	22 00 00 00 	lbu $3,689($3)
  4019ac:	b1 02 03 03 
  4019b0:	30 00 00 00 	sb $3,15($4)
  4019b4:	0f 00 03 04 
  4019b8:	22 00 00 00 	lbu $2,1($29)
  4019bc:	01 00 02 1d 
  4019c0:	52 00 00 00 	xor $3,$3,$2
  4019c4:	00 03 02 03 
  4019c8:	30 00 00 00 	sb $3,15($4)
  4019cc:	0f 00 03 04 
  4019d0:	22 00 00 00 	lbu $2,2($29)
  4019d4:	02 00 02 1d 
  4019d8:	52 00 00 00 	xor $3,$3,$2
  4019dc:	00 03 02 03 
  4019e0:	30 00 00 00 	sb $3,15($4)
  4019e4:	0f 00 03 04 
  4019e8:	22 00 00 00 	lbu $5,3($29)
  4019ec:	03 00 05 1d 
  4019f0:	55 00 00 00 	sll $2,$5,0x1
  4019f4:	01 02 05 00 
  4019f8:	42 00 00 00 	addu $2,$2,$5
  4019fc:	00 02 05 02 
  401a00:	55 00 00 00 	sll $2,$2,0x1
  401a04:	01 02 02 00 
  401a08:	a2 00 00 00 	lui $1,4096
  401a0c:	00 10 01 00 
  401a10:	42 00 00 00 	addu $1,$1,$2
  401a14:	00 01 02 01 
  401a18:	22 00 00 00 	lbu $2,688($1)
  401a1c:	b0 02 02 01 
  401a20:	52 00 00 00 	xor $3,$3,$2
  401a24:	00 03 02 03 
  401a28:	30 00 00 00 	sb $3,15($4)
  401a2c:	0f 00 03 04 
  401a30:	43 00 00 00 	addiu $29,$29,8
  401a34:	08 00 1d 1d 
  401a38:	03 00 00 00 	jr $31
  401a3c:	00 00 00 1f 

00401a40 <InvMixColumns>:
  401a40:	22 00 00 00 	lbu $3,0($4)
  401a44:	00 00 03 04 
  401a48:	43 00 00 00 	addiu $29,$29,-8
  401a4c:	f8 ff 1d 1d 
  401a50:	30 00 00 00 	sb $3,0($29)
  401a54:	00 00 03 1d 
  401a58:	22 00 00 00 	lbu $2,4($4)
  401a5c:	04 00 02 04 
  401a60:	30 00 00 00 	sb $2,1($29)
  401a64:	01 00 02 1d 
  401a68:	22 00 00 00 	lbu $2,8($4)
  401a6c:	08 00 02 04 
  401a70:	30 00 00 00 	sb $2,2($29)
  401a74:	02 00 02 1d 
  401a78:	22 00 00 00 	lbu $2,12($4)
  401a7c:	0c 00 02 04 
  401a80:	30 00 00 00 	sb $2,3($29)
  401a84:	03 00 02 1d 
  401a88:	55 00 00 00 	sll $2,$3,0x1
  401a8c:	01 02 03 00 
  401a90:	42 00 00 00 	addu $2,$2,$3
  401a94:	00 02 03 02 
  401a98:	55 00 00 00 	sll $2,$2,0x1
  401a9c:	01 02 02 00 
  401aa0:	a2 00 00 00 	lui $3,4096
  401aa4:	00 10 03 00 
  401aa8:	42 00 00 00 	addu $3,$3,$2
  401aac:	00 03 02 03 
  401ab0:	22 00 00 00 	lbu $3,693($3)
  401ab4:	b5 02 03 03 
  401ab8:	30 00 00 00 	sb $3,0($4)
  401abc:	00 00 03 04 
  401ac0:	22 00 00 00 	lbu $5,1($29)
  401ac4:	01 00 05 1d 
  401ac8:	55 00 00 00 	sll $2,$5,0x1
  401acc:	01 02 05 00 
  401ad0:	42 00 00 00 	addu $2,$2,$5
  401ad4:	00 02 05 02 
  401ad8:	55 00 00 00 	sll $2,$2,0x1
  401adc:	01 02 02 00 
  401ae0:	a2 00 00 00 	lui $1,4096
  401ae4:	00 10 01 00 
  401ae8:	42 00 00 00 	addu $1,$1,$2
  401aec:	00 01 02 01 
  401af0:	22 00 00 00 	lbu $2,691($1)
  401af4:	b3 02 02 01 
  401af8:	52 00 00 00 	xor $3,$3,$2
  401afc:	00 03 02 03 
  401b00:	30 00 00 00 	sb $3,0($4)
  401b04:	00 00 03 04 
  401b08:	22 00 00 00 	lbu $5,2($29)
  401b0c:	02 00 05 1d 
  401b10:	55 00 00 00 	sll $2,$5,0x1
  401b14:	01 02 05 00 
  401b18:	42 00 00 00 	addu $2,$2,$5
  401b1c:	00 02 05 02 
  401b20:	55 00 00 00 	sll $2,$2,0x1
  401b24:	01 02 02 00 
  401b28:	a2 00 00 00 	lui $1,4096
  401b2c:	00 10 01 00 
  401b30:	42 00 00 00 	addu $1,$1,$2
  401b34:	00 01 02 01 
  401b38:	22 00 00 00 	lbu $2,692($1)
  401b3c:	b4 02 02 01 
  401b40:	52 00 00 00 	xor $3,$3,$2
  401b44:	00 03 02 03 
  401b48:	30 00 00 00 	sb $3,0($4)
  401b4c:	00 00 03 04 
  401b50:	22 00 00 00 	lbu $5,3($29)
  401b54:	03 00 05 1d 
  401b58:	55 00 00 00 	sll $2,$5,0x1
  401b5c:	01 02 05 00 
  401b60:	42 00 00 00 	addu $2,$2,$5
  401b64:	00 02 05 02 
  401b68:	55 00 00 00 	sll $2,$2,0x1
  401b6c:	01 02 02 00 
  401b70:	a2 00 00 00 	lui $1,4096
  401b74:	00 10 01 00 
  401b78:	42 00 00 00 	addu $1,$1,$2
  401b7c:	00 01 02 01 
  401b80:	22 00 00 00 	lbu $2,690($1)
  401b84:	b2 02 02 01 
  401b88:	52 00 00 00 	xor $3,$3,$2
  401b8c:	00 03 02 03 
  401b90:	30 00 00 00 	sb $3,0($4)
  401b94:	00 00 03 04 
  401b98:	22 00 00 00 	lbu $3,0($29)
  401b9c:	00 00 03 1d 
  401ba0:	55 00 00 00 	sll $2,$3,0x1
  401ba4:	01 02 03 00 
  401ba8:	42 00 00 00 	addu $2,$2,$3
  401bac:	00 02 03 02 
  401bb0:	55 00 00 00 	sll $2,$2,0x1
  401bb4:	01 02 02 00 
  401bb8:	a2 00 00 00 	lui $3,4096
  401bbc:	00 10 03 00 
  401bc0:	42 00 00 00 	addu $3,$3,$2
  401bc4:	00 03 02 03 
  401bc8:	22 00 00 00 	lbu $3,690($3)
  401bcc:	b2 02 03 03 
  401bd0:	30 00 00 00 	sb $3,4($4)
  401bd4:	04 00 03 04 
  401bd8:	22 00 00 00 	lbu $5,1($29)
  401bdc:	01 00 05 1d 
  401be0:	55 00 00 00 	sll $2,$5,0x1
  401be4:	01 02 05 00 
  401be8:	42 00 00 00 	addu $2,$2,$5
  401bec:	00 02 05 02 
  401bf0:	55 00 00 00 	sll $2,$2,0x1
  401bf4:	01 02 02 00 
  401bf8:	a2 00 00 00 	lui $1,4096
  401bfc:	00 10 01 00 
  401c00:	42 00 00 00 	addu $1,$1,$2
  401c04:	00 01 02 01 
  401c08:	22 00 00 00 	lbu $2,693($1)
  401c0c:	b5 02 02 01 
  401c10:	52 00 00 00 	xor $3,$3,$2
  401c14:	00 03 02 03 
  401c18:	30 00 00 00 	sb $3,4($4)
  401c1c:	04 00 03 04 
  401c20:	22 00 00 00 	lbu $5,2($29)
  401c24:	02 00 05 1d 
  401c28:	55 00 00 00 	sll $2,$5,0x1
  401c2c:	01 02 05 00 
  401c30:	42 00 00 00 	addu $2,$2,$5
  401c34:	00 02 05 02 
  401c38:	55 00 00 00 	sll $2,$2,0x1
  401c3c:	01 02 02 00 
  401c40:	a2 00 00 00 	lui $1,4096
  401c44:	00 10 01 00 
  401c48:	42 00 00 00 	addu $1,$1,$2
  401c4c:	00 01 02 01 
  401c50:	22 00 00 00 	lbu $2,691($1)
  401c54:	b3 02 02 01 
  401c58:	52 00 00 00 	xor $3,$3,$2
  401c5c:	00 03 02 03 
  401c60:	30 00 00 00 	sb $3,4($4)
  401c64:	04 00 03 04 
  401c68:	22 00 00 00 	lbu $5,3($29)
  401c6c:	03 00 05 1d 
  401c70:	55 00 00 00 	sll $2,$5,0x1
  401c74:	01 02 05 00 
  401c78:	42 00 00 00 	addu $2,$2,$5
  401c7c:	00 02 05 02 
  401c80:	55 00 00 00 	sll $2,$2,0x1
  401c84:	01 02 02 00 
  401c88:	a2 00 00 00 	lui $1,4096
  401c8c:	00 10 01 00 
  401c90:	42 00 00 00 	addu $1,$1,$2
  401c94:	00 01 02 01 
  401c98:	22 00 00 00 	lbu $2,692($1)
  401c9c:	b4 02 02 01 
  401ca0:	52 00 00 00 	xor $3,$3,$2
  401ca4:	00 03 02 03 
  401ca8:	30 00 00 00 	sb $3,4($4)
  401cac:	04 00 03 04 
  401cb0:	22 00 00 00 	lbu $3,0($29)
  401cb4:	00 00 03 1d 
  401cb8:	55 00 00 00 	sll $2,$3,0x1
  401cbc:	01 02 03 00 
  401cc0:	42 00 00 00 	addu $2,$2,$3
  401cc4:	00 02 03 02 
  401cc8:	55 00 00 00 	sll $2,$2,0x1
  401ccc:	01 02 02 00 
  401cd0:	a2 00 00 00 	lui $3,4096
  401cd4:	00 10 03 00 
  401cd8:	42 00 00 00 	addu $3,$3,$2
  401cdc:	00 03 02 03 
  401ce0:	22 00 00 00 	lbu $3,692($3)
  401ce4:	b4 02 03 03 
  401ce8:	30 00 00 00 	sb $3,8($4)
  401cec:	08 00 03 04 
  401cf0:	22 00 00 00 	lbu $5,1($29)
  401cf4:	01 00 05 1d 
  401cf8:	55 00 00 00 	sll $2,$5,0x1
  401cfc:	01 02 05 00 
  401d00:	42 00 00 00 	addu $2,$2,$5
  401d04:	00 02 05 02 
  401d08:	55 00 00 00 	sll $2,$2,0x1
  401d0c:	01 02 02 00 
  401d10:	a2 00 00 00 	lui $1,4096
  401d14:	00 10 01 00 
  401d18:	42 00 00 00 	addu $1,$1,$2
  401d1c:	00 01 02 01 
  401d20:	22 00 00 00 	lbu $2,690($1)
  401d24:	b2 02 02 01 
  401d28:	52 00 00 00 	xor $3,$3,$2
  401d2c:	00 03 02 03 
  401d30:	30 00 00 00 	sb $3,8($4)
  401d34:	08 00 03 04 
  401d38:	22 00 00 00 	lbu $5,2($29)
  401d3c:	02 00 05 1d 
  401d40:	55 00 00 00 	sll $2,$5,0x1
  401d44:	01 02 05 00 
  401d48:	42 00 00 00 	addu $2,$2,$5
  401d4c:	00 02 05 02 
  401d50:	55 00 00 00 	sll $2,$2,0x1
  401d54:	01 02 02 00 
  401d58:	a2 00 00 00 	lui $1,4096
  401d5c:	00 10 01 00 
  401d60:	42 00 00 00 	addu $1,$1,$2
  401d64:	00 01 02 01 
  401d68:	22 00 00 00 	lbu $2,693($1)
  401d6c:	b5 02 02 01 
  401d70:	52 00 00 00 	xor $3,$3,$2
  401d74:	00 03 02 03 
  401d78:	30 00 00 00 	sb $3,8($4)
  401d7c:	08 00 03 04 
  401d80:	22 00 00 00 	lbu $5,3($29)
  401d84:	03 00 05 1d 
  401d88:	55 00 00 00 	sll $2,$5,0x1
  401d8c:	01 02 05 00 
  401d90:	42 00 00 00 	addu $2,$2,$5
  401d94:	00 02 05 02 
  401d98:	55 00 00 00 	sll $2,$2,0x1
  401d9c:	01 02 02 00 
  401da0:	a2 00 00 00 	lui $1,4096
  401da4:	00 10 01 00 
  401da8:	42 00 00 00 	addu $1,$1,$2
  401dac:	00 01 02 01 
  401db0:	22 00 00 00 	lbu $2,691($1)
  401db4:	b3 02 02 01 
  401db8:	52 00 00 00 	xor $3,$3,$2
  401dbc:	00 03 02 03 
  401dc0:	30 00 00 00 	sb $3,8($4)
  401dc4:	08 00 03 04 
  401dc8:	22 00 00 00 	lbu $3,0($29)
  401dcc:	00 00 03 1d 
  401dd0:	55 00 00 00 	sll $2,$3,0x1
  401dd4:	01 02 03 00 
  401dd8:	42 00 00 00 	addu $2,$2,$3
  401ddc:	00 02 03 02 
  401de0:	55 00 00 00 	sll $2,$2,0x1
  401de4:	01 02 02 00 
  401de8:	a2 00 00 00 	lui $5,4096
  401dec:	00 10 05 00 
  401df0:	42 00 00 00 	addu $5,$5,$2
  401df4:	00 05 02 05 
  401df8:	22 00 00 00 	lbu $5,691($5)
  401dfc:	b3 02 05 05 
  401e00:	30 00 00 00 	sb $5,12($4)
  401e04:	0c 00 05 04 
  401e08:	22 00 00 00 	lbu $3,1($29)
  401e0c:	01 00 03 1d 
  401e10:	55 00 00 00 	sll $2,$3,0x1
  401e14:	01 02 03 00 
  401e18:	42 00 00 00 	addu $2,$2,$3
  401e1c:	00 02 03 02 
  401e20:	55 00 00 00 	sll $2,$2,0x1
  401e24:	01 02 02 00 
  401e28:	a2 00 00 00 	lui $1,4096
  401e2c:	00 10 01 00 
  401e30:	42 00 00 00 	addu $1,$1,$2
  401e34:	00 01 02 01 
  401e38:	22 00 00 00 	lbu $2,692($1)
  401e3c:	b4 02 02 01 
  401e40:	52 00 00 00 	xor $5,$5,$2
  401e44:	00 05 02 05 
  401e48:	30 00 00 00 	sb $5,12($4)
  401e4c:	0c 00 05 04 
  401e50:	22 00 00 00 	lbu $3,2($29)
  401e54:	02 00 03 1d 
  401e58:	55 00 00 00 	sll $2,$3,0x1
  401e5c:	01 02 03 00 
  401e60:	42 00 00 00 	addu $2,$2,$3
  401e64:	00 02 03 02 
  401e68:	55 00 00 00 	sll $2,$2,0x1
  401e6c:	01 02 02 00 
  401e70:	a2 00 00 00 	lui $1,4096
  401e74:	00 10 01 00 
  401e78:	42 00 00 00 	addu $1,$1,$2
  401e7c:	00 01 02 01 
  401e80:	22 00 00 00 	lbu $2,690($1)
  401e84:	b2 02 02 01 
  401e88:	52 00 00 00 	xor $5,$5,$2
  401e8c:	00 05 02 05 
  401e90:	30 00 00 00 	sb $5,12($4)
  401e94:	0c 00 05 04 
  401e98:	22 00 00 00 	lbu $3,3($29)
  401e9c:	03 00 03 1d 
  401ea0:	55 00 00 00 	sll $2,$3,0x1
  401ea4:	01 02 03 00 
  401ea8:	42 00 00 00 	addu $2,$2,$3
  401eac:	00 02 03 02 
  401eb0:	55 00 00 00 	sll $2,$2,0x1
  401eb4:	01 02 02 00 
  401eb8:	a2 00 00 00 	lui $1,4096
  401ebc:	00 10 01 00 
  401ec0:	42 00 00 00 	addu $1,$1,$2
  401ec4:	00 01 02 01 
  401ec8:	22 00 00 00 	lbu $2,693($1)
  401ecc:	b5 02 02 01 
  401ed0:	22 00 00 00 	lbu $3,1($4)
  401ed4:	01 00 03 04 
  401ed8:	52 00 00 00 	xor $5,$5,$2
  401edc:	00 05 02 05 
  401ee0:	30 00 00 00 	sb $5,12($4)
  401ee4:	0c 00 05 04 
  401ee8:	30 00 00 00 	sb $3,0($29)
  401eec:	00 00 03 1d 
  401ef0:	22 00 00 00 	lbu $2,5($4)
  401ef4:	05 00 02 04 
  401ef8:	30 00 00 00 	sb $2,1($29)
  401efc:	01 00 02 1d 
  401f00:	22 00 00 00 	lbu $2,9($4)
  401f04:	09 00 02 04 
  401f08:	30 00 00 00 	sb $2,2($29)
  401f0c:	02 00 02 1d 
  401f10:	22 00 00 00 	lbu $2,13($4)
  401f14:	0d 00 02 04 
  401f18:	30 00 00 00 	sb $2,3($29)
  401f1c:	03 00 02 1d 
  401f20:	55 00 00 00 	sll $2,$3,0x1
  401f24:	01 02 03 00 
  401f28:	42 00 00 00 	addu $2,$2,$3
  401f2c:	00 02 03 02 
  401f30:	55 00 00 00 	sll $2,$2,0x1
  401f34:	01 02 02 00 
  401f38:	a2 00 00 00 	lui $3,4096
  401f3c:	00 10 03 00 
  401f40:	42 00 00 00 	addu $3,$3,$2
  401f44:	00 03 02 03 
  401f48:	22 00 00 00 	lbu $3,693($3)
  401f4c:	b5 02 03 03 
  401f50:	30 00 00 00 	sb $3,1($4)
  401f54:	01 00 03 04 
  401f58:	22 00 00 00 	lbu $5,1($29)
  401f5c:	01 00 05 1d 
  401f60:	55 00 00 00 	sll $2,$5,0x1
  401f64:	01 02 05 00 
  401f68:	42 00 00 00 	addu $2,$2,$5
  401f6c:	00 02 05 02 
  401f70:	55 00 00 00 	sll $2,$2,0x1
  401f74:	01 02 02 00 
  401f78:	a2 00 00 00 	lui $1,4096
  401f7c:	00 10 01 00 
  401f80:	42 00 00 00 	addu $1,$1,$2
  401f84:	00 01 02 01 
  401f88:	22 00 00 00 	lbu $2,691($1)
  401f8c:	b3 02 02 01 
  401f90:	52 00 00 00 	xor $3,$3,$2
  401f94:	00 03 02 03 
  401f98:	30 00 00 00 	sb $3,1($4)
  401f9c:	01 00 03 04 
  401fa0:	22 00 00 00 	lbu $5,2($29)
  401fa4:	02 00 05 1d 
  401fa8:	55 00 00 00 	sll $2,$5,0x1
  401fac:	01 02 05 00 
  401fb0:	42 00 00 00 	addu $2,$2,$5
  401fb4:	00 02 05 02 
  401fb8:	55 00 00 00 	sll $2,$2,0x1
  401fbc:	01 02 02 00 
  401fc0:	a2 00 00 00 	lui $1,4096
  401fc4:	00 10 01 00 
  401fc8:	42 00 00 00 	addu $1,$1,$2
  401fcc:	00 01 02 01 
  401fd0:	22 00 00 00 	lbu $2,692($1)
  401fd4:	b4 02 02 01 
  401fd8:	52 00 00 00 	xor $3,$3,$2
  401fdc:	00 03 02 03 
  401fe0:	30 00 00 00 	sb $3,1($4)
  401fe4:	01 00 03 04 
  401fe8:	22 00 00 00 	lbu $5,3($29)
  401fec:	03 00 05 1d 
  401ff0:	55 00 00 00 	sll $2,$5,0x1
  401ff4:	01 02 05 00 
  401ff8:	42 00 00 00 	addu $2,$2,$5
  401ffc:	00 02 05 02 
  402000:	55 00 00 00 	sll $2,$2,0x1
  402004:	01 02 02 00 
  402008:	a2 00 00 00 	lui $1,4096
  40200c:	00 10 01 00 
  402010:	42 00 00 00 	addu $1,$1,$2
  402014:	00 01 02 01 
  402018:	22 00 00 00 	lbu $2,690($1)
  40201c:	b2 02 02 01 
  402020:	52 00 00 00 	xor $3,$3,$2
  402024:	00 03 02 03 
  402028:	30 00 00 00 	sb $3,1($4)
  40202c:	01 00 03 04 
  402030:	22 00 00 00 	lbu $3,0($29)
  402034:	00 00 03 1d 
  402038:	55 00 00 00 	sll $2,$3,0x1
  40203c:	01 02 03 00 
  402040:	42 00 00 00 	addu $2,$2,$3
  402044:	00 02 03 02 
  402048:	55 00 00 00 	sll $2,$2,0x1
  40204c:	01 02 02 00 
  402050:	a2 00 00 00 	lui $3,4096
  402054:	00 10 03 00 
  402058:	42 00 00 00 	addu $3,$3,$2
  40205c:	00 03 02 03 
  402060:	22 00 00 00 	lbu $3,690($3)
  402064:	b2 02 03 03 
  402068:	30 00 00 00 	sb $3,5($4)
  40206c:	05 00 03 04 
  402070:	22 00 00 00 	lbu $5,1($29)
  402074:	01 00 05 1d 
  402078:	55 00 00 00 	sll $2,$5,0x1
  40207c:	01 02 05 00 
  402080:	42 00 00 00 	addu $2,$2,$5
  402084:	00 02 05 02 
  402088:	55 00 00 00 	sll $2,$2,0x1
  40208c:	01 02 02 00 
  402090:	a2 00 00 00 	lui $1,4096
  402094:	00 10 01 00 
  402098:	42 00 00 00 	addu $1,$1,$2
  40209c:	00 01 02 01 
  4020a0:	22 00 00 00 	lbu $2,693($1)
  4020a4:	b5 02 02 01 
  4020a8:	52 00 00 00 	xor $3,$3,$2
  4020ac:	00 03 02 03 
  4020b0:	30 00 00 00 	sb $3,5($4)
  4020b4:	05 00 03 04 
  4020b8:	22 00 00 00 	lbu $5,2($29)
  4020bc:	02 00 05 1d 
  4020c0:	55 00 00 00 	sll $2,$5,0x1
  4020c4:	01 02 05 00 
  4020c8:	42 00 00 00 	addu $2,$2,$5
  4020cc:	00 02 05 02 
  4020d0:	55 00 00 00 	sll $2,$2,0x1
  4020d4:	01 02 02 00 
  4020d8:	a2 00 00 00 	lui $1,4096
  4020dc:	00 10 01 00 
  4020e0:	42 00 00 00 	addu $1,$1,$2
  4020e4:	00 01 02 01 
  4020e8:	22 00 00 00 	lbu $2,691($1)
  4020ec:	b3 02 02 01 
  4020f0:	52 00 00 00 	xor $3,$3,$2
  4020f4:	00 03 02 03 
  4020f8:	30 00 00 00 	sb $3,5($4)
  4020fc:	05 00 03 04 
  402100:	22 00 00 00 	lbu $5,3($29)
  402104:	03 00 05 1d 
  402108:	55 00 00 00 	sll $2,$5,0x1
  40210c:	01 02 05 00 
  402110:	42 00 00 00 	addu $2,$2,$5
  402114:	00 02 05 02 
  402118:	55 00 00 00 	sll $2,$2,0x1
  40211c:	01 02 02 00 
  402120:	a2 00 00 00 	lui $1,4096
  402124:	00 10 01 00 
  402128:	42 00 00 00 	addu $1,$1,$2
  40212c:	00 01 02 01 
  402130:	22 00 00 00 	lbu $2,692($1)
  402134:	b4 02 02 01 
  402138:	52 00 00 00 	xor $3,$3,$2
  40213c:	00 03 02 03 
  402140:	30 00 00 00 	sb $3,5($4)
  402144:	05 00 03 04 
  402148:	22 00 00 00 	lbu $3,0($29)
  40214c:	00 00 03 1d 
  402150:	55 00 00 00 	sll $2,$3,0x1
  402154:	01 02 03 00 
  402158:	42 00 00 00 	addu $2,$2,$3
  40215c:	00 02 03 02 
  402160:	55 00 00 00 	sll $2,$2,0x1
  402164:	01 02 02 00 
  402168:	a2 00 00 00 	lui $3,4096
  40216c:	00 10 03 00 
  402170:	42 00 00 00 	addu $3,$3,$2
  402174:	00 03 02 03 
  402178:	22 00 00 00 	lbu $3,692($3)
  40217c:	b4 02 03 03 
  402180:	30 00 00 00 	sb $3,9($4)
  402184:	09 00 03 04 
  402188:	22 00 00 00 	lbu $5,1($29)
  40218c:	01 00 05 1d 
  402190:	55 00 00 00 	sll $2,$5,0x1
  402194:	01 02 05 00 
  402198:	42 00 00 00 	addu $2,$2,$5
  40219c:	00 02 05 02 
  4021a0:	55 00 00 00 	sll $2,$2,0x1
  4021a4:	01 02 02 00 
  4021a8:	a2 00 00 00 	lui $1,4096
  4021ac:	00 10 01 00 
  4021b0:	42 00 00 00 	addu $1,$1,$2
  4021b4:	00 01 02 01 
  4021b8:	22 00 00 00 	lbu $2,690($1)
  4021bc:	b2 02 02 01 
  4021c0:	52 00 00 00 	xor $3,$3,$2
  4021c4:	00 03 02 03 
  4021c8:	30 00 00 00 	sb $3,9($4)
  4021cc:	09 00 03 04 
  4021d0:	22 00 00 00 	lbu $5,2($29)
  4021d4:	02 00 05 1d 
  4021d8:	55 00 00 00 	sll $2,$5,0x1
  4021dc:	01 02 05 00 
  4021e0:	42 00 00 00 	addu $2,$2,$5
  4021e4:	00 02 05 02 
  4021e8:	55 00 00 00 	sll $2,$2,0x1
  4021ec:	01 02 02 00 
  4021f0:	a2 00 00 00 	lui $1,4096
  4021f4:	00 10 01 00 
  4021f8:	42 00 00 00 	addu $1,$1,$2
  4021fc:	00 01 02 01 
  402200:	22 00 00 00 	lbu $2,693($1)
  402204:	b5 02 02 01 
  402208:	52 00 00 00 	xor $3,$3,$2
  40220c:	00 03 02 03 
  402210:	30 00 00 00 	sb $3,9($4)
  402214:	09 00 03 04 
  402218:	22 00 00 00 	lbu $5,3($29)
  40221c:	03 00 05 1d 
  402220:	55 00 00 00 	sll $2,$5,0x1
  402224:	01 02 05 00 
  402228:	42 00 00 00 	addu $2,$2,$5
  40222c:	00 02 05 02 
  402230:	55 00 00 00 	sll $2,$2,0x1
  402234:	01 02 02 00 
  402238:	a2 00 00 00 	lui $1,4096
  40223c:	00 10 01 00 
  402240:	42 00 00 00 	addu $1,$1,$2
  402244:	00 01 02 01 
  402248:	22 00 00 00 	lbu $2,691($1)
  40224c:	b3 02 02 01 
  402250:	52 00 00 00 	xor $3,$3,$2
  402254:	00 03 02 03 
  402258:	30 00 00 00 	sb $3,9($4)
  40225c:	09 00 03 04 
  402260:	22 00 00 00 	lbu $3,0($29)
  402264:	00 00 03 1d 
  402268:	55 00 00 00 	sll $2,$3,0x1
  40226c:	01 02 03 00 
  402270:	42 00 00 00 	addu $2,$2,$3
  402274:	00 02 03 02 
  402278:	55 00 00 00 	sll $2,$2,0x1
  40227c:	01 02 02 00 
  402280:	a2 00 00 00 	lui $5,4096
  402284:	00 10 05 00 
  402288:	42 00 00 00 	addu $5,$5,$2
  40228c:	00 05 02 05 
  402290:	22 00 00 00 	lbu $5,691($5)
  402294:	b3 02 05 05 
  402298:	30 00 00 00 	sb $5,13($4)
  40229c:	0d 00 05 04 
  4022a0:	22 00 00 00 	lbu $3,1($29)
  4022a4:	01 00 03 1d 
  4022a8:	55 00 00 00 	sll $2,$3,0x1
  4022ac:	01 02 03 00 
  4022b0:	42 00 00 00 	addu $2,$2,$3
  4022b4:	00 02 03 02 
  4022b8:	55 00 00 00 	sll $2,$2,0x1
  4022bc:	01 02 02 00 
  4022c0:	a2 00 00 00 	lui $1,4096
  4022c4:	00 10 01 00 
  4022c8:	42 00 00 00 	addu $1,$1,$2
  4022cc:	00 01 02 01 
  4022d0:	22 00 00 00 	lbu $2,692($1)
  4022d4:	b4 02 02 01 
  4022d8:	52 00 00 00 	xor $5,$5,$2
  4022dc:	00 05 02 05 
  4022e0:	30 00 00 00 	sb $5,13($4)
  4022e4:	0d 00 05 04 
  4022e8:	22 00 00 00 	lbu $3,2($29)
  4022ec:	02 00 03 1d 
  4022f0:	55 00 00 00 	sll $2,$3,0x1
  4022f4:	01 02 03 00 
  4022f8:	42 00 00 00 	addu $2,$2,$3
  4022fc:	00 02 03 02 
  402300:	55 00 00 00 	sll $2,$2,0x1
  402304:	01 02 02 00 
  402308:	a2 00 00 00 	lui $1,4096
  40230c:	00 10 01 00 
  402310:	42 00 00 00 	addu $1,$1,$2
  402314:	00 01 02 01 
  402318:	22 00 00 00 	lbu $2,690($1)
  40231c:	b2 02 02 01 
  402320:	52 00 00 00 	xor $5,$5,$2
  402324:	00 05 02 05 
  402328:	30 00 00 00 	sb $5,13($4)
  40232c:	0d 00 05 04 
  402330:	22 00 00 00 	lbu $3,3($29)
  402334:	03 00 03 1d 
  402338:	55 00 00 00 	sll $2,$3,0x1
  40233c:	01 02 03 00 
  402340:	42 00 00 00 	addu $2,$2,$3
  402344:	00 02 03 02 
  402348:	55 00 00 00 	sll $2,$2,0x1
  40234c:	01 02 02 00 
  402350:	a2 00 00 00 	lui $1,4096
  402354:	00 10 01 00 
  402358:	42 00 00 00 	addu $1,$1,$2
  40235c:	00 01 02 01 
  402360:	22 00 00 00 	lbu $2,693($1)
  402364:	b5 02 02 01 
  402368:	22 00 00 00 	lbu $3,2($4)
  40236c:	02 00 03 04 
  402370:	52 00 00 00 	xor $5,$5,$2
  402374:	00 05 02 05 
  402378:	30 00 00 00 	sb $5,13($4)
  40237c:	0d 00 05 04 
  402380:	30 00 00 00 	sb $3,0($29)
  402384:	00 00 03 1d 
  402388:	22 00 00 00 	lbu $2,6($4)
  40238c:	06 00 02 04 
  402390:	30 00 00 00 	sb $2,1($29)
  402394:	01 00 02 1d 
  402398:	22 00 00 00 	lbu $2,10($4)
  40239c:	0a 00 02 04 
  4023a0:	30 00 00 00 	sb $2,2($29)
  4023a4:	02 00 02 1d 
  4023a8:	22 00 00 00 	lbu $2,14($4)
  4023ac:	0e 00 02 04 
  4023b0:	30 00 00 00 	sb $2,3($29)
  4023b4:	03 00 02 1d 
  4023b8:	55 00 00 00 	sll $2,$3,0x1
  4023bc:	01 02 03 00 
  4023c0:	42 00 00 00 	addu $2,$2,$3
  4023c4:	00 02 03 02 
  4023c8:	55 00 00 00 	sll $2,$2,0x1
  4023cc:	01 02 02 00 
  4023d0:	a2 00 00 00 	lui $3,4096
  4023d4:	00 10 03 00 
  4023d8:	42 00 00 00 	addu $3,$3,$2
  4023dc:	00 03 02 03 
  4023e0:	22 00 00 00 	lbu $3,693($3)
  4023e4:	b5 02 03 03 
  4023e8:	30 00 00 00 	sb $3,2($4)
  4023ec:	02 00 03 04 
  4023f0:	22 00 00 00 	lbu $5,1($29)
  4023f4:	01 00 05 1d 
  4023f8:	55 00 00 00 	sll $2,$5,0x1
  4023fc:	01 02 05 00 
  402400:	42 00 00 00 	addu $2,$2,$5
  402404:	00 02 05 02 
  402408:	55 00 00 00 	sll $2,$2,0x1
  40240c:	01 02 02 00 
  402410:	a2 00 00 00 	lui $1,4096
  402414:	00 10 01 00 
  402418:	42 00 00 00 	addu $1,$1,$2
  40241c:	00 01 02 01 
  402420:	22 00 00 00 	lbu $2,691($1)
  402424:	b3 02 02 01 
  402428:	52 00 00 00 	xor $3,$3,$2
  40242c:	00 03 02 03 
  402430:	30 00 00 00 	sb $3,2($4)
  402434:	02 00 03 04 
  402438:	22 00 00 00 	lbu $5,2($29)
  40243c:	02 00 05 1d 
  402440:	55 00 00 00 	sll $2,$5,0x1
  402444:	01 02 05 00 
  402448:	42 00 00 00 	addu $2,$2,$5
  40244c:	00 02 05 02 
  402450:	55 00 00 00 	sll $2,$2,0x1
  402454:	01 02 02 00 
  402458:	a2 00 00 00 	lui $1,4096
  40245c:	00 10 01 00 
  402460:	42 00 00 00 	addu $1,$1,$2
  402464:	00 01 02 01 
  402468:	22 00 00 00 	lbu $2,692($1)
  40246c:	b4 02 02 01 
  402470:	52 00 00 00 	xor $3,$3,$2
  402474:	00 03 02 03 
  402478:	30 00 00 00 	sb $3,2($4)
  40247c:	02 00 03 04 
  402480:	22 00 00 00 	lbu $5,3($29)
  402484:	03 00 05 1d 
  402488:	55 00 00 00 	sll $2,$5,0x1
  40248c:	01 02 05 00 
  402490:	42 00 00 00 	addu $2,$2,$5
  402494:	00 02 05 02 
  402498:	55 00 00 00 	sll $2,$2,0x1
  40249c:	01 02 02 00 
  4024a0:	a2 00 00 00 	lui $1,4096
  4024a4:	00 10 01 00 
  4024a8:	42 00 00 00 	addu $1,$1,$2
  4024ac:	00 01 02 01 
  4024b0:	22 00 00 00 	lbu $2,690($1)
  4024b4:	b2 02 02 01 
  4024b8:	52 00 00 00 	xor $3,$3,$2
  4024bc:	00 03 02 03 
  4024c0:	30 00 00 00 	sb $3,2($4)
  4024c4:	02 00 03 04 
  4024c8:	22 00 00 00 	lbu $3,0($29)
  4024cc:	00 00 03 1d 
  4024d0:	55 00 00 00 	sll $2,$3,0x1
  4024d4:	01 02 03 00 
  4024d8:	42 00 00 00 	addu $2,$2,$3
  4024dc:	00 02 03 02 
  4024e0:	55 00 00 00 	sll $2,$2,0x1
  4024e4:	01 02 02 00 
  4024e8:	a2 00 00 00 	lui $3,4096
  4024ec:	00 10 03 00 
  4024f0:	42 00 00 00 	addu $3,$3,$2
  4024f4:	00 03 02 03 
  4024f8:	22 00 00 00 	lbu $3,690($3)
  4024fc:	b2 02 03 03 
  402500:	30 00 00 00 	sb $3,6($4)
  402504:	06 00 03 04 
  402508:	22 00 00 00 	lbu $5,1($29)
  40250c:	01 00 05 1d 
  402510:	55 00 00 00 	sll $2,$5,0x1
  402514:	01 02 05 00 
  402518:	42 00 00 00 	addu $2,$2,$5
  40251c:	00 02 05 02 
  402520:	55 00 00 00 	sll $2,$2,0x1
  402524:	01 02 02 00 
  402528:	a2 00 00 00 	lui $1,4096
  40252c:	00 10 01 00 
  402530:	42 00 00 00 	addu $1,$1,$2
  402534:	00 01 02 01 
  402538:	22 00 00 00 	lbu $2,693($1)
  40253c:	b5 02 02 01 
  402540:	52 00 00 00 	xor $3,$3,$2
  402544:	00 03 02 03 
  402548:	30 00 00 00 	sb $3,6($4)
  40254c:	06 00 03 04 
  402550:	22 00 00 00 	lbu $5,2($29)
  402554:	02 00 05 1d 
  402558:	55 00 00 00 	sll $2,$5,0x1
  40255c:	01 02 05 00 
  402560:	42 00 00 00 	addu $2,$2,$5
  402564:	00 02 05 02 
  402568:	55 00 00 00 	sll $2,$2,0x1
  40256c:	01 02 02 00 
  402570:	a2 00 00 00 	lui $1,4096
  402574:	00 10 01 00 
  402578:	42 00 00 00 	addu $1,$1,$2
  40257c:	00 01 02 01 
  402580:	22 00 00 00 	lbu $2,691($1)
  402584:	b3 02 02 01 
  402588:	52 00 00 00 	xor $3,$3,$2
  40258c:	00 03 02 03 
  402590:	30 00 00 00 	sb $3,6($4)
  402594:	06 00 03 04 
  402598:	22 00 00 00 	lbu $5,3($29)
  40259c:	03 00 05 1d 
  4025a0:	55 00 00 00 	sll $2,$5,0x1
  4025a4:	01 02 05 00 
  4025a8:	42 00 00 00 	addu $2,$2,$5
  4025ac:	00 02 05 02 
  4025b0:	55 00 00 00 	sll $2,$2,0x1
  4025b4:	01 02 02 00 
  4025b8:	a2 00 00 00 	lui $1,4096
  4025bc:	00 10 01 00 
  4025c0:	42 00 00 00 	addu $1,$1,$2
  4025c4:	00 01 02 01 
  4025c8:	22 00 00 00 	lbu $2,692($1)
  4025cc:	b4 02 02 01 
  4025d0:	52 00 00 00 	xor $3,$3,$2
  4025d4:	00 03 02 03 
  4025d8:	30 00 00 00 	sb $3,6($4)
  4025dc:	06 00 03 04 
  4025e0:	22 00 00 00 	lbu $3,0($29)
  4025e4:	00 00 03 1d 
  4025e8:	55 00 00 00 	sll $2,$3,0x1
  4025ec:	01 02 03 00 
  4025f0:	42 00 00 00 	addu $2,$2,$3
  4025f4:	00 02 03 02 
  4025f8:	55 00 00 00 	sll $2,$2,0x1
  4025fc:	01 02 02 00 
  402600:	a2 00 00 00 	lui $3,4096
  402604:	00 10 03 00 
  402608:	42 00 00 00 	addu $3,$3,$2
  40260c:	00 03 02 03 
  402610:	22 00 00 00 	lbu $3,692($3)
  402614:	b4 02 03 03 
  402618:	30 00 00 00 	sb $3,10($4)
  40261c:	0a 00 03 04 
  402620:	22 00 00 00 	lbu $5,1($29)
  402624:	01 00 05 1d 
  402628:	55 00 00 00 	sll $2,$5,0x1
  40262c:	01 02 05 00 
  402630:	42 00 00 00 	addu $2,$2,$5
  402634:	00 02 05 02 
  402638:	55 00 00 00 	sll $2,$2,0x1
  40263c:	01 02 02 00 
  402640:	a2 00 00 00 	lui $1,4096
  402644:	00 10 01 00 
  402648:	42 00 00 00 	addu $1,$1,$2
  40264c:	00 01 02 01 
  402650:	22 00 00 00 	lbu $2,690($1)
  402654:	b2 02 02 01 
  402658:	52 00 00 00 	xor $3,$3,$2
  40265c:	00 03 02 03 
  402660:	30 00 00 00 	sb $3,10($4)
  402664:	0a 00 03 04 
  402668:	22 00 00 00 	lbu $5,2($29)
  40266c:	02 00 05 1d 
  402670:	55 00 00 00 	sll $2,$5,0x1
  402674:	01 02 05 00 
  402678:	42 00 00 00 	addu $2,$2,$5
  40267c:	00 02 05 02 
  402680:	55 00 00 00 	sll $2,$2,0x1
  402684:	01 02 02 00 
  402688:	a2 00 00 00 	lui $1,4096
  40268c:	00 10 01 00 
  402690:	42 00 00 00 	addu $1,$1,$2
  402694:	00 01 02 01 
  402698:	22 00 00 00 	lbu $2,693($1)
  40269c:	b5 02 02 01 
  4026a0:	52 00 00 00 	xor $3,$3,$2
  4026a4:	00 03 02 03 
  4026a8:	30 00 00 00 	sb $3,10($4)
  4026ac:	0a 00 03 04 
  4026b0:	22 00 00 00 	lbu $5,3($29)
  4026b4:	03 00 05 1d 
  4026b8:	55 00 00 00 	sll $2,$5,0x1
  4026bc:	01 02 05 00 
  4026c0:	42 00 00 00 	addu $2,$2,$5
  4026c4:	00 02 05 02 
  4026c8:	55 00 00 00 	sll $2,$2,0x1
  4026cc:	01 02 02 00 
  4026d0:	a2 00 00 00 	lui $1,4096
  4026d4:	00 10 01 00 
  4026d8:	42 00 00 00 	addu $1,$1,$2
  4026dc:	00 01 02 01 
  4026e0:	22 00 00 00 	lbu $2,691($1)
  4026e4:	b3 02 02 01 
  4026e8:	52 00 00 00 	xor $3,$3,$2
  4026ec:	00 03 02 03 
  4026f0:	30 00 00 00 	sb $3,10($4)
  4026f4:	0a 00 03 04 
  4026f8:	22 00 00 00 	lbu $3,0($29)
  4026fc:	00 00 03 1d 
  402700:	55 00 00 00 	sll $2,$3,0x1
  402704:	01 02 03 00 
  402708:	42 00 00 00 	addu $2,$2,$3
  40270c:	00 02 03 02 
  402710:	55 00 00 00 	sll $2,$2,0x1
  402714:	01 02 02 00 
  402718:	a2 00 00 00 	lui $5,4096
  40271c:	00 10 05 00 
  402720:	42 00 00 00 	addu $5,$5,$2
  402724:	00 05 02 05 
  402728:	22 00 00 00 	lbu $5,691($5)
  40272c:	b3 02 05 05 
  402730:	30 00 00 00 	sb $5,14($4)
  402734:	0e 00 05 04 
  402738:	22 00 00 00 	lbu $3,1($29)
  40273c:	01 00 03 1d 
  402740:	55 00 00 00 	sll $2,$3,0x1
  402744:	01 02 03 00 
  402748:	42 00 00 00 	addu $2,$2,$3
  40274c:	00 02 03 02 
  402750:	55 00 00 00 	sll $2,$2,0x1
  402754:	01 02 02 00 
  402758:	a2 00 00 00 	lui $1,4096
  40275c:	00 10 01 00 
  402760:	42 00 00 00 	addu $1,$1,$2
  402764:	00 01 02 01 
  402768:	22 00 00 00 	lbu $2,692($1)
  40276c:	b4 02 02 01 
  402770:	52 00 00 00 	xor $5,$5,$2
  402774:	00 05 02 05 
  402778:	30 00 00 00 	sb $5,14($4)
  40277c:	0e 00 05 04 
  402780:	22 00 00 00 	lbu $3,2($29)
  402784:	02 00 03 1d 
  402788:	55 00 00 00 	sll $2,$3,0x1
  40278c:	01 02 03 00 
  402790:	42 00 00 00 	addu $2,$2,$3
  402794:	00 02 03 02 
  402798:	55 00 00 00 	sll $2,$2,0x1
  40279c:	01 02 02 00 
  4027a0:	a2 00 00 00 	lui $1,4096
  4027a4:	00 10 01 00 
  4027a8:	42 00 00 00 	addu $1,$1,$2
  4027ac:	00 01 02 01 
  4027b0:	22 00 00 00 	lbu $2,690($1)
  4027b4:	b2 02 02 01 
  4027b8:	52 00 00 00 	xor $5,$5,$2
  4027bc:	00 05 02 05 
  4027c0:	30 00 00 00 	sb $5,14($4)
  4027c4:	0e 00 05 04 
  4027c8:	22 00 00 00 	lbu $3,3($29)
  4027cc:	03 00 03 1d 
  4027d0:	55 00 00 00 	sll $2,$3,0x1
  4027d4:	01 02 03 00 
  4027d8:	42 00 00 00 	addu $2,$2,$3
  4027dc:	00 02 03 02 
  4027e0:	55 00 00 00 	sll $2,$2,0x1
  4027e4:	01 02 02 00 
  4027e8:	a2 00 00 00 	lui $1,4096
  4027ec:	00 10 01 00 
  4027f0:	42 00 00 00 	addu $1,$1,$2
  4027f4:	00 01 02 01 
  4027f8:	22 00 00 00 	lbu $2,693($1)
  4027fc:	b5 02 02 01 
  402800:	22 00 00 00 	lbu $3,3($4)
  402804:	03 00 03 04 
  402808:	52 00 00 00 	xor $5,$5,$2
  40280c:	00 05 02 05 
  402810:	30 00 00 00 	sb $5,14($4)
  402814:	0e 00 05 04 
  402818:	30 00 00 00 	sb $3,0($29)
  40281c:	00 00 03 1d 
  402820:	22 00 00 00 	lbu $2,7($4)
  402824:	07 00 02 04 
  402828:	30 00 00 00 	sb $2,1($29)
  40282c:	01 00 02 1d 
  402830:	22 00 00 00 	lbu $2,11($4)
  402834:	0b 00 02 04 
  402838:	30 00 00 00 	sb $2,2($29)
  40283c:	02 00 02 1d 
  402840:	22 00 00 00 	lbu $2,15($4)
  402844:	0f 00 02 04 
  402848:	30 00 00 00 	sb $2,3($29)
  40284c:	03 00 02 1d 
  402850:	55 00 00 00 	sll $2,$3,0x1
  402854:	01 02 03 00 
  402858:	42 00 00 00 	addu $2,$2,$3
  40285c:	00 02 03 02 
  402860:	55 00 00 00 	sll $2,$2,0x1
  402864:	01 02 02 00 
  402868:	a2 00 00 00 	lui $3,4096
  40286c:	00 10 03 00 
  402870:	42 00 00 00 	addu $3,$3,$2
  402874:	00 03 02 03 
  402878:	22 00 00 00 	lbu $3,693($3)
  40287c:	b5 02 03 03 
  402880:	30 00 00 00 	sb $3,3($4)
  402884:	03 00 03 04 
  402888:	22 00 00 00 	lbu $5,1($29)
  40288c:	01 00 05 1d 
  402890:	55 00 00 00 	sll $2,$5,0x1
  402894:	01 02 05 00 
  402898:	42 00 00 00 	addu $2,$2,$5
  40289c:	00 02 05 02 
  4028a0:	55 00 00 00 	sll $2,$2,0x1
  4028a4:	01 02 02 00 
  4028a8:	a2 00 00 00 	lui $1,4096
  4028ac:	00 10 01 00 
  4028b0:	42 00 00 00 	addu $1,$1,$2
  4028b4:	00 01 02 01 
  4028b8:	22 00 00 00 	lbu $2,691($1)
  4028bc:	b3 02 02 01 
  4028c0:	52 00 00 00 	xor $3,$3,$2
  4028c4:	00 03 02 03 
  4028c8:	30 00 00 00 	sb $3,3($4)
  4028cc:	03 00 03 04 
  4028d0:	22 00 00 00 	lbu $5,2($29)
  4028d4:	02 00 05 1d 
  4028d8:	55 00 00 00 	sll $2,$5,0x1
  4028dc:	01 02 05 00 
  4028e0:	42 00 00 00 	addu $2,$2,$5
  4028e4:	00 02 05 02 
  4028e8:	55 00 00 00 	sll $2,$2,0x1
  4028ec:	01 02 02 00 
  4028f0:	a2 00 00 00 	lui $1,4096
  4028f4:	00 10 01 00 
  4028f8:	42 00 00 00 	addu $1,$1,$2
  4028fc:	00 01 02 01 
  402900:	22 00 00 00 	lbu $2,692($1)
  402904:	b4 02 02 01 
  402908:	52 00 00 00 	xor $3,$3,$2
  40290c:	00 03 02 03 
  402910:	30 00 00 00 	sb $3,3($4)
  402914:	03 00 03 04 
  402918:	22 00 00 00 	lbu $5,3($29)
  40291c:	03 00 05 1d 
  402920:	55 00 00 00 	sll $2,$5,0x1
  402924:	01 02 05 00 
  402928:	42 00 00 00 	addu $2,$2,$5
  40292c:	00 02 05 02 
  402930:	55 00 00 00 	sll $2,$2,0x1
  402934:	01 02 02 00 
  402938:	a2 00 00 00 	lui $1,4096
  40293c:	00 10 01 00 
  402940:	42 00 00 00 	addu $1,$1,$2
  402944:	00 01 02 01 
  402948:	22 00 00 00 	lbu $2,690($1)
  40294c:	b2 02 02 01 
  402950:	52 00 00 00 	xor $3,$3,$2
  402954:	00 03 02 03 
  402958:	30 00 00 00 	sb $3,3($4)
  40295c:	03 00 03 04 
  402960:	22 00 00 00 	lbu $3,0($29)
  402964:	00 00 03 1d 
  402968:	55 00 00 00 	sll $2,$3,0x1
  40296c:	01 02 03 00 
  402970:	42 00 00 00 	addu $2,$2,$3
  402974:	00 02 03 02 
  402978:	55 00 00 00 	sll $2,$2,0x1
  40297c:	01 02 02 00 
  402980:	a2 00 00 00 	lui $3,4096
  402984:	00 10 03 00 
  402988:	42 00 00 00 	addu $3,$3,$2
  40298c:	00 03 02 03 
  402990:	22 00 00 00 	lbu $3,690($3)
  402994:	b2 02 03 03 
  402998:	30 00 00 00 	sb $3,7($4)
  40299c:	07 00 03 04 
  4029a0:	22 00 00 00 	lbu $5,1($29)
  4029a4:	01 00 05 1d 
  4029a8:	55 00 00 00 	sll $2,$5,0x1
  4029ac:	01 02 05 00 
  4029b0:	42 00 00 00 	addu $2,$2,$5
  4029b4:	00 02 05 02 
  4029b8:	55 00 00 00 	sll $2,$2,0x1
  4029bc:	01 02 02 00 
  4029c0:	a2 00 00 00 	lui $1,4096
  4029c4:	00 10 01 00 
  4029c8:	42 00 00 00 	addu $1,$1,$2
  4029cc:	00 01 02 01 
  4029d0:	22 00 00 00 	lbu $2,693($1)
  4029d4:	b5 02 02 01 
  4029d8:	52 00 00 00 	xor $3,$3,$2
  4029dc:	00 03 02 03 
  4029e0:	30 00 00 00 	sb $3,7($4)
  4029e4:	07 00 03 04 
  4029e8:	22 00 00 00 	lbu $5,2($29)
  4029ec:	02 00 05 1d 
  4029f0:	55 00 00 00 	sll $2,$5,0x1
  4029f4:	01 02 05 00 
  4029f8:	42 00 00 00 	addu $2,$2,$5
  4029fc:	00 02 05 02 
  402a00:	55 00 00 00 	sll $2,$2,0x1
  402a04:	01 02 02 00 
  402a08:	a2 00 00 00 	lui $1,4096
  402a0c:	00 10 01 00 
  402a10:	42 00 00 00 	addu $1,$1,$2
  402a14:	00 01 02 01 
  402a18:	22 00 00 00 	lbu $2,691($1)
  402a1c:	b3 02 02 01 
  402a20:	52 00 00 00 	xor $3,$3,$2
  402a24:	00 03 02 03 
  402a28:	30 00 00 00 	sb $3,7($4)
  402a2c:	07 00 03 04 
  402a30:	22 00 00 00 	lbu $5,3($29)
  402a34:	03 00 05 1d 
  402a38:	55 00 00 00 	sll $2,$5,0x1
  402a3c:	01 02 05 00 
  402a40:	42 00 00 00 	addu $2,$2,$5
  402a44:	00 02 05 02 
  402a48:	55 00 00 00 	sll $2,$2,0x1
  402a4c:	01 02 02 00 
  402a50:	a2 00 00 00 	lui $1,4096
  402a54:	00 10 01 00 
  402a58:	42 00 00 00 	addu $1,$1,$2
  402a5c:	00 01 02 01 
  402a60:	22 00 00 00 	lbu $2,692($1)
  402a64:	b4 02 02 01 
  402a68:	52 00 00 00 	xor $3,$3,$2
  402a6c:	00 03 02 03 
  402a70:	30 00 00 00 	sb $3,7($4)
  402a74:	07 00 03 04 
  402a78:	22 00 00 00 	lbu $3,0($29)
  402a7c:	00 00 03 1d 
  402a80:	55 00 00 00 	sll $2,$3,0x1
  402a84:	01 02 03 00 
  402a88:	42 00 00 00 	addu $2,$2,$3
  402a8c:	00 02 03 02 
  402a90:	55 00 00 00 	sll $2,$2,0x1
  402a94:	01 02 02 00 
  402a98:	a2 00 00 00 	lui $3,4096
  402a9c:	00 10 03 00 
  402aa0:	42 00 00 00 	addu $3,$3,$2
  402aa4:	00 03 02 03 
  402aa8:	22 00 00 00 	lbu $3,692($3)
  402aac:	b4 02 03 03 
  402ab0:	30 00 00 00 	sb $3,11($4)
  402ab4:	0b 00 03 04 
  402ab8:	22 00 00 00 	lbu $5,1($29)
  402abc:	01 00 05 1d 
  402ac0:	55 00 00 00 	sll $2,$5,0x1
  402ac4:	01 02 05 00 
  402ac8:	42 00 00 00 	addu $2,$2,$5
  402acc:	00 02 05 02 
  402ad0:	55 00 00 00 	sll $2,$2,0x1
  402ad4:	01 02 02 00 
  402ad8:	a2 00 00 00 	lui $1,4096
  402adc:	00 10 01 00 
  402ae0:	42 00 00 00 	addu $1,$1,$2
  402ae4:	00 01 02 01 
  402ae8:	22 00 00 00 	lbu $2,690($1)
  402aec:	b2 02 02 01 
  402af0:	52 00 00 00 	xor $3,$3,$2
  402af4:	00 03 02 03 
  402af8:	30 00 00 00 	sb $3,11($4)
  402afc:	0b 00 03 04 
  402b00:	22 00 00 00 	lbu $5,2($29)
  402b04:	02 00 05 1d 
  402b08:	55 00 00 00 	sll $2,$5,0x1
  402b0c:	01 02 05 00 
  402b10:	42 00 00 00 	addu $2,$2,$5
  402b14:	00 02 05 02 
  402b18:	55 00 00 00 	sll $2,$2,0x1
  402b1c:	01 02 02 00 
  402b20:	a2 00 00 00 	lui $1,4096
  402b24:	00 10 01 00 
  402b28:	42 00 00 00 	addu $1,$1,$2
  402b2c:	00 01 02 01 
  402b30:	22 00 00 00 	lbu $2,693($1)
  402b34:	b5 02 02 01 
  402b38:	52 00 00 00 	xor $3,$3,$2
  402b3c:	00 03 02 03 
  402b40:	30 00 00 00 	sb $3,11($4)
  402b44:	0b 00 03 04 
  402b48:	22 00 00 00 	lbu $5,3($29)
  402b4c:	03 00 05 1d 
  402b50:	55 00 00 00 	sll $2,$5,0x1
  402b54:	01 02 05 00 
  402b58:	42 00 00 00 	addu $2,$2,$5
  402b5c:	00 02 05 02 
  402b60:	55 00 00 00 	sll $2,$2,0x1
  402b64:	01 02 02 00 
  402b68:	a2 00 00 00 	lui $1,4096
  402b6c:	00 10 01 00 
  402b70:	42 00 00 00 	addu $1,$1,$2
  402b74:	00 01 02 01 
  402b78:	22 00 00 00 	lbu $2,691($1)
  402b7c:	b3 02 02 01 
  402b80:	52 00 00 00 	xor $3,$3,$2
  402b84:	00 03 02 03 
  402b88:	30 00 00 00 	sb $3,11($4)
  402b8c:	0b 00 03 04 
  402b90:	22 00 00 00 	lbu $3,0($29)
  402b94:	00 00 03 1d 
  402b98:	55 00 00 00 	sll $2,$3,0x1
  402b9c:	01 02 03 00 
  402ba0:	42 00 00 00 	addu $2,$2,$3
  402ba4:	00 02 03 02 
  402ba8:	55 00 00 00 	sll $2,$2,0x1
  402bac:	01 02 02 00 
  402bb0:	a2 00 00 00 	lui $3,4096
  402bb4:	00 10 03 00 
  402bb8:	42 00 00 00 	addu $3,$3,$2
  402bbc:	00 03 02 03 
  402bc0:	22 00 00 00 	lbu $3,691($3)
  402bc4:	b3 02 03 03 
  402bc8:	30 00 00 00 	sb $3,15($4)
  402bcc:	0f 00 03 04 
  402bd0:	22 00 00 00 	lbu $5,1($29)
  402bd4:	01 00 05 1d 
  402bd8:	55 00 00 00 	sll $2,$5,0x1
  402bdc:	01 02 05 00 
  402be0:	42 00 00 00 	addu $2,$2,$5
  402be4:	00 02 05 02 
  402be8:	55 00 00 00 	sll $2,$2,0x1
  402bec:	01 02 02 00 
  402bf0:	a2 00 00 00 	lui $1,4096
  402bf4:	00 10 01 00 
  402bf8:	42 00 00 00 	addu $1,$1,$2
  402bfc:	00 01 02 01 
  402c00:	22 00 00 00 	lbu $2,692($1)
  402c04:	b4 02 02 01 
  402c08:	52 00 00 00 	xor $3,$3,$2
  402c0c:	00 03 02 03 
  402c10:	30 00 00 00 	sb $3,15($4)
  402c14:	0f 00 03 04 
  402c18:	22 00 00 00 	lbu $5,2($29)
  402c1c:	02 00 05 1d 
  402c20:	55 00 00 00 	sll $2,$5,0x1
  402c24:	01 02 05 00 
  402c28:	42 00 00 00 	addu $2,$2,$5
  402c2c:	00 02 05 02 
  402c30:	55 00 00 00 	sll $2,$2,0x1
  402c34:	01 02 02 00 
  402c38:	a2 00 00 00 	lui $1,4096
  402c3c:	00 10 01 00 
  402c40:	42 00 00 00 	addu $1,$1,$2
  402c44:	00 01 02 01 
  402c48:	22 00 00 00 	lbu $2,690($1)
  402c4c:	b2 02 02 01 
  402c50:	52 00 00 00 	xor $3,$3,$2
  402c54:	00 03 02 03 
  402c58:	30 00 00 00 	sb $3,15($4)
  402c5c:	0f 00 03 04 
  402c60:	22 00 00 00 	lbu $5,3($29)
  402c64:	03 00 05 1d 
  402c68:	55 00 00 00 	sll $2,$5,0x1
  402c6c:	01 02 05 00 
  402c70:	42 00 00 00 	addu $2,$2,$5
  402c74:	00 02 05 02 
  402c78:	55 00 00 00 	sll $2,$2,0x1
  402c7c:	01 02 02 00 
  402c80:	a2 00 00 00 	lui $1,4096
  402c84:	00 10 01 00 
  402c88:	42 00 00 00 	addu $1,$1,$2
  402c8c:	00 01 02 01 
  402c90:	22 00 00 00 	lbu $2,693($1)
  402c94:	b5 02 02 01 
  402c98:	52 00 00 00 	xor $3,$3,$2
  402c9c:	00 03 02 03 
  402ca0:	30 00 00 00 	sb $3,15($4)
  402ca4:	0f 00 03 04 
  402ca8:	43 00 00 00 	addiu $29,$29,8
  402cac:	08 00 1d 1d 
  402cb0:	03 00 00 00 	jr $31
  402cb4:	00 00 00 1f 

00402cb8 <SubWord>:
  402cb8:	a2 00 00 00 	lui $6,4096
  402cbc:	00 10 06 00 
  402cc0:	43 00 00 00 	addiu $6,$6,0
  402cc4:	00 00 06 06 
  402cc8:	4f 00 00 00 	andi $5,$4,240
  402ccc:	f0 00 05 04 
  402cd0:	42 00 00 00 	addu $5,$5,$6
  402cd4:	00 05 06 05 
  402cd8:	4f 00 00 00 	andi $2,$4,15
  402cdc:	0f 00 02 04 
  402ce0:	42 00 00 00 	addu $5,$5,$2
  402ce4:	00 05 02 05 
  402ce8:	57 00 00 00 	srl $2,$4,0x8
  402cec:	08 02 04 00 
  402cf0:	4f 00 00 00 	andi $2,$2,240
  402cf4:	f0 00 02 02 
  402cf8:	42 00 00 00 	addu $2,$2,$6
  402cfc:	00 02 06 02 
  402d00:	57 00 00 00 	srl $3,$4,0x8
  402d04:	08 03 04 00 
  402d08:	4f 00 00 00 	andi $3,$3,15
  402d0c:	0f 00 03 03 
  402d10:	42 00 00 00 	addu $2,$2,$3
  402d14:	00 02 03 02 
  402d18:	22 00 00 00 	lbu $2,0($2)
  402d1c:	00 00 02 02 
  402d20:	22 00 00 00 	lbu $5,0($5)
  402d24:	00 00 05 05 
  402d28:	57 00 00 00 	srl $3,$4,0x10
  402d2c:	10 03 04 00 
  402d30:	4f 00 00 00 	andi $3,$3,15
  402d34:	0f 00 03 03 
  402d38:	55 00 00 00 	sll $2,$2,0x8
  402d3c:	08 02 02 00 
  402d40:	42 00 00 00 	addu $5,$5,$2
  402d44:	00 05 02 05 
  402d48:	57 00 00 00 	srl $2,$4,0x10
  402d4c:	10 02 04 00 
  402d50:	4f 00 00 00 	andi $2,$2,240
  402d54:	f0 00 02 02 
  402d58:	42 00 00 00 	addu $2,$2,$6
  402d5c:	00 02 06 02 
  402d60:	42 00 00 00 	addu $2,$2,$3
  402d64:	00 02 03 02 
  402d68:	22 00 00 00 	lbu $3,0($2)
  402d6c:	00 00 03 02 
  402d70:	57 00 00 00 	srl $2,$4,0x1c
  402d74:	1c 02 04 00 
  402d78:	55 00 00 00 	sll $2,$2,0x4
  402d7c:	04 02 02 00 
  402d80:	42 00 00 00 	addu $2,$2,$6
  402d84:	00 02 06 02 
  402d88:	57 00 00 00 	srl $4,$4,0x18
  402d8c:	18 04 04 00 
  402d90:	4f 00 00 00 	andi $4,$4,15
  402d94:	0f 00 04 04 
  402d98:	42 00 00 00 	addu $2,$2,$4
  402d9c:	00 02 04 02 
  402da0:	22 00 00 00 	lbu $2,0($2)
  402da4:	00 00 02 02 
  402da8:	55 00 00 00 	sll $3,$3,0x10
  402dac:	10 03 03 00 
  402db0:	42 00 00 00 	addu $5,$5,$3
  402db4:	00 05 03 05 
  402db8:	55 00 00 00 	sll $2,$2,0x18
  402dbc:	18 02 02 00 
  402dc0:	42 00 00 00 	addu $2,$5,$2
  402dc4:	00 02 02 05 
  402dc8:	03 00 00 00 	jr $31
  402dcc:	00 00 00 1f 

00402dd0 <KeyExpansion>:
  402dd0:	43 00 00 00 	addiu $29,$29,-80
  402dd4:	b0 ff 1d 1d 
  402dd8:	42 00 00 00 	addu $10,$0,$4
  402ddc:	00 0a 04 00 
  402de0:	42 00 00 00 	addu $12,$0,$5
  402de4:	00 0c 05 00 
  402de8:	43 00 00 00 	addiu $11,$0,4
  402dec:	04 00 0b 00 
  402df0:	42 00 00 00 	addu $8,$0,$29
  402df4:	00 08 1d 00 
  402df8:	a2 00 00 00 	lui $7,4096
  402dfc:	00 10 07 00 
  402e00:	43 00 00 00 	addiu $7,$7,512
  402e04:	00 02 07 07 
  402e08:	43 00 00 00 	addiu $9,$7,48
  402e0c:	30 00 09 07 
  402e10:	28 00 00 00 	lw $2,0($7)
  402e14:	00 00 02 07 
  402e18:	28 00 00 00 	lw $3,4($7)
  402e1c:	04 00 03 07 
  402e20:	28 00 00 00 	lw $4,8($7)
  402e24:	08 00 04 07 
  402e28:	28 00 00 00 	lw $5,12($7)
  402e2c:	0c 00 05 07 
  402e30:	34 00 00 00 	sw $2,0($8)
  402e34:	00 00 02 08 
  402e38:	34 00 00 00 	sw $3,4($8)
  402e3c:	04 00 03 08 
  402e40:	34 00 00 00 	sw $4,8($8)
  402e44:	08 00 04 08 
  402e48:	34 00 00 00 	sw $5,12($8)
  402e4c:	0c 00 05 08 
  402e50:	43 00 00 00 	addiu $7,$7,16
  402e54:	10 00 07 07 
  402e58:	43 00 00 00 	addiu $8,$8,16
  402e5c:	10 00 08 08 
  402e60:	06 00 00 00 	bne $7,$9,402e10 <KeyExpansion+0x40>
  402e64:	ea ff 09 07 
  402e68:	28 00 00 00 	lw $2,0($7)
  402e6c:	00 00 02 07 
  402e70:	28 00 00 00 	lw $3,4($7)
  402e74:	04 00 03 07 
  402e78:	28 00 00 00 	lw $4,8($7)
  402e7c:	08 00 04 07 
  402e80:	34 00 00 00 	sw $2,0($8)
  402e84:	00 00 02 08 
  402e88:	34 00 00 00 	sw $3,4($8)
  402e8c:	04 00 03 08 
  402e90:	34 00 00 00 	sw $4,8($8)
  402e94:	08 00 04 08 
  402e98:	43 00 00 00 	addiu $2,$0,192
  402e9c:	c0 00 02 00 
  402ea0:	05 00 00 00 	beq $6,$2,402f00 <KeyExpansion+0x130>
  402ea4:	16 00 02 06 
  402ea8:	5c 00 00 00 	slti $2,$6,193
  402eac:	c1 00 02 06 
  402eb0:	05 00 00 00 	beq $2,$0,402ed0 <KeyExpansion+0x100>
  402eb4:	06 00 00 02 
  402eb8:	43 00 00 00 	addiu $2,$0,128
  402ebc:	80 00 02 00 
  402ec0:	05 00 00 00 	beq $6,$2,402ee8 <KeyExpansion+0x118>
  402ec4:	08 00 02 06 
  402ec8:	01 00 00 00 	j 403378 <KeyExpansion+0x5a8>
  402ecc:	de 0c 10 00 
  402ed0:	43 00 00 00 	addiu $2,$0,256
  402ed4:	00 01 02 00 
  402ed8:	05 00 00 00 	beq $6,$2,402f18 <KeyExpansion+0x148>
  402edc:	0e 00 02 06 
  402ee0:	01 00 00 00 	j 403378 <KeyExpansion+0x5a8>
  402ee4:	de 0c 10 00 
  402ee8:	43 00 00 00 	addiu $7,$0,10
  402eec:	0a 00 07 00 
  402ef0:	43 00 00 00 	addiu $9,$0,4
  402ef4:	04 00 09 00 
  402ef8:	01 00 00 00 	j 402f28 <KeyExpansion+0x158>
  402efc:	ca 0b 10 00 
  402f00:	43 00 00 00 	addiu $7,$0,12
  402f04:	0c 00 07 00 
  402f08:	43 00 00 00 	addiu $9,$0,6
  402f0c:	06 00 09 00 
  402f10:	01 00 00 00 	j 402f28 <KeyExpansion+0x158>
  402f14:	ca 0b 10 00 
  402f18:	43 00 00 00 	addiu $7,$0,14
  402f1c:	0e 00 07 00 
  402f20:	43 00 00 00 	addiu $9,$0,8
  402f24:	08 00 09 00 
  402f28:	42 00 00 00 	addu $8,$0,$0
  402f2c:	00 08 00 00 
  402f30:	05 00 00 00 	beq $9,$0,402fc8 <KeyExpansion+0x1f8>
  402f34:	24 00 00 09 
  402f38:	42 00 00 00 	addu $6,$0,$12
  402f3c:	00 06 0c 00 
  402f40:	42 00 00 00 	addu $5,$0,$10
  402f44:	00 05 0a 00 
  402f48:	22 00 00 00 	lbu $2,0($5)
  402f4c:	00 00 02 05 
  402f50:	22 00 00 00 	lbu $4,1($5)
  402f54:	01 00 04 05 
  402f58:	43 00 00 00 	addiu $8,$8,1
  402f5c:	01 00 08 08 
  402f60:	22 00 00 00 	lbu $3,2($5)
  402f64:	02 00 03 05 
  402f68:	55 00 00 00 	sll $2,$2,0x18
  402f6c:	18 02 02 00 
  402f70:	55 00 00 00 	sll $4,$4,0x10
  402f74:	10 04 04 00 
  402f78:	50 00 00 00 	or $2,$2,$4
  402f7c:	00 02 04 02 
  402f80:	22 00 00 00 	lbu $4,3($5)
  402f84:	03 00 04 05 
  402f88:	55 00 00 00 	sll $3,$3,0x8
  402f8c:	08 03 03 00 
  402f90:	50 00 00 00 	or $2,$2,$3
  402f94:	00 02 03 02 
  402f98:	50 00 00 00 	or $2,$2,$4
  402f9c:	00 02 04 02 
  402fa0:	34 00 00 00 	sw $2,0($6)
  402fa4:	00 00 02 06 
  402fa8:	43 00 00 00 	addiu $6,$6,4
  402fac:	04 00 06 06 
  402fb0:	43 00 00 00 	addiu $5,$5,4
  402fb4:	04 00 05 05 
  402fb8:	5b 00 00 00 	slt $2,$8,$9
  402fbc:	00 02 09 08 
  402fc0:	06 00 00 00 	bne $2,$0,402f48 <KeyExpansion+0x178>
  402fc4:	e0 ff 00 02 
  402fc8:	43 00 00 00 	addiu $2,$7,1
  402fcc:	01 00 02 07 
  402fd0:	46 00 00 00 	mult $11,$2
  402fd4:	00 00 02 0b 
  402fd8:	4c 00 00 00 	mflo $3
  402fdc:	00 03 00 00 
  402fe0:	42 00 00 00 	addu $8,$0,$9
  402fe4:	00 08 09 00 
  402fe8:	5b 00 00 00 	slt $2,$8,$3
  402fec:	00 02 03 08 
  402ff0:	05 00 00 00 	beq $2,$0,403378 <KeyExpansion+0x5a8>
  402ff4:	e0 00 00 02 
  402ff8:	a2 00 00 00 	lui $10,4096
  402ffc:	00 10 0a 00 
  403000:	43 00 00 00 	addiu $10,$10,0
  403004:	00 00 0a 0a 
  403008:	42 00 00 00 	addu $13,$0,$3
  40300c:	00 0d 03 00 
  403010:	55 00 00 00 	sll $2,$8,0x2
  403014:	02 02 08 00 
  403018:	42 00 00 00 	addu $11,$2,$12
  40301c:	00 0b 0c 02 
  403020:	48 00 00 00 	div $0,$8,$9
  403024:	00 00 09 08 
  403028:	06 00 00 00 	bne $9,$0,403038 <KeyExpansion+0x268>
  40302c:	02 00 00 09 
  403030:	a1 00 00 00 	break 
  403034:	07 00 00 00 
  403038:	43 00 00 00 	addiu $1,$0,-1
  40303c:	ff ff 01 00 
  403040:	06 00 00 00 	bne $9,$1,403060 <KeyExpansion+0x290>
  403044:	06 00 01 09 
  403048:	a2 00 00 00 	lui $1,32768
  40304c:	00 80 01 00 
  403050:	06 00 00 00 	bne $8,$1,403060 <KeyExpansion+0x290>
  403054:	02 00 01 08 
  403058:	a1 00 00 00 	break 
  40305c:	06 00 00 00 
  403060:	4a 00 00 00 	mfhi $3
  403064:	00 03 00 00 
  403068:	28 00 00 00 	lw $6,-4($11)
  40306c:	fc ff 06 0b 
  403070:	06 00 00 00 	bne $3,$0,403208 <KeyExpansion+0x438>
  403074:	64 00 00 03 
  403078:	43 00 00 00 	addiu $7,$8,-1
  40307c:	ff ff 07 08 
  403080:	48 00 00 00 	div $0,$7,$9
  403084:	00 00 09 07 
  403088:	06 00 00 00 	bne $9,$0,403098 <KeyExpansion+0x2c8>
  40308c:	02 00 00 09 
  403090:	a1 00 00 00 	break 
  403094:	07 00 00 00 
  403098:	43 00 00 00 	addiu $1,$0,-1
  40309c:	ff ff 01 00 
  4030a0:	06 00 00 00 	bne $9,$1,4030c0 <KeyExpansion+0x2f0>
  4030a4:	06 00 01 09 
  4030a8:	a2 00 00 00 	lui $1,32768
  4030ac:	00 80 01 00 
  4030b0:	06 00 00 00 	bne $7,$1,4030c0 <KeyExpansion+0x2f0>
  4030b4:	02 00 01 07 
  4030b8:	a1 00 00 00 	break 
  4030bc:	06 00 00 00 
  4030c0:	4c 00 00 00 	mflo $7
  4030c4:	00 07 00 00 
  4030c8:	55 00 00 00 	sll $4,$6,0x8
  4030cc:	08 04 06 00 
  4030d0:	57 00 00 00 	srl $2,$6,0x18
  4030d4:	18 02 06 00 
  4030d8:	50 00 00 00 	or $4,$4,$2
  4030dc:	00 04 02 04 
  4030e0:	4f 00 00 00 	andi $2,$2,240
  4030e4:	f0 00 02 02 
  4030e8:	42 00 00 00 	addu $2,$2,$10
  4030ec:	00 02 0a 02 
  4030f0:	4f 00 00 00 	andi $3,$4,15
  4030f4:	0f 00 03 04 
  4030f8:	42 00 00 00 	addu $2,$2,$3
  4030fc:	00 02 03 02 
  403100:	22 00 00 00 	lbu $6,0($2)
  403104:	00 00 06 02 
  403108:	57 00 00 00 	srl $3,$4,0x8
  40310c:	08 03 04 00 
  403110:	4f 00 00 00 	andi $3,$3,240
  403114:	f0 00 03 03 
  403118:	42 00 00 00 	addu $3,$3,$10
  40311c:	00 03 0a 03 
  403120:	55 00 00 00 	sll $7,$7,0x2
  403124:	02 07 07 00 
  403128:	57 00 00 00 	srl $2,$4,0x8
  40312c:	08 02 04 00 
  403130:	4f 00 00 00 	andi $2,$2,15
  403134:	0f 00 02 02 
  403138:	42 00 00 00 	addu $3,$3,$2
  40313c:	00 03 02 03 
  403140:	22 00 00 00 	lbu $5,0($3)
  403144:	00 00 05 03 
  403148:	57 00 00 00 	srl $2,$4,0x10
  40314c:	10 02 04 00 
  403150:	4f 00 00 00 	andi $2,$2,15
  403154:	0f 00 02 02 
  403158:	57 00 00 00 	srl $3,$4,0x10
  40315c:	10 03 04 00 
  403160:	4f 00 00 00 	andi $3,$3,240
  403164:	f0 00 03 03 
  403168:	42 00 00 00 	addu $3,$3,$10
  40316c:	00 03 0a 03 
  403170:	42 00 00 00 	addu $3,$3,$2
  403174:	00 03 02 03 
  403178:	22 00 00 00 	lbu $2,0($3)
  40317c:	00 00 02 03 
  403180:	55 00 00 00 	sll $5,$5,0x8
  403184:	08 05 05 00 
  403188:	42 00 00 00 	addu $6,$6,$5
  40318c:	00 06 05 06 
  403190:	55 00 00 00 	sll $2,$2,0x10
  403194:	10 02 02 00 
  403198:	42 00 00 00 	addu $6,$6,$2
  40319c:	00 06 02 06 
  4031a0:	57 00 00 00 	srl $2,$4,0x1c
  4031a4:	1c 02 04 00 
  4031a8:	55 00 00 00 	sll $2,$2,0x4
  4031ac:	04 02 02 00 
  4031b0:	42 00 00 00 	addu $2,$2,$10
  4031b4:	00 02 0a 02 
  4031b8:	57 00 00 00 	srl $4,$4,0x18
  4031bc:	18 04 04 00 
  4031c0:	4f 00 00 00 	andi $4,$4,15
  4031c4:	0f 00 04 04 
  4031c8:	42 00 00 00 	addu $2,$2,$4
  4031cc:	00 02 04 02 
  4031d0:	22 00 00 00 	lbu $2,0($2)
  4031d4:	00 00 02 02 
  4031d8:	42 00 00 00 	addu $7,$7,$29
  4031dc:	00 07 1d 07 
  4031e0:	28 00 00 00 	lw $3,0($7)
  4031e4:	00 00 03 07 
  4031e8:	55 00 00 00 	sll $2,$2,0x18
  4031ec:	18 02 02 00 
  4031f0:	42 00 00 00 	addu $6,$6,$2
  4031f4:	00 06 02 06 
  4031f8:	52 00 00 00 	xor $6,$6,$3
  4031fc:	00 06 03 06 
  403200:	01 00 00 00 	j 403328 <KeyExpansion+0x558>
  403204:	ca 0c 10 00 
  403208:	5c 00 00 00 	slti $2,$9,7
  40320c:	07 00 02 09 
  403210:	06 00 00 00 	bne $2,$0,403328 <KeyExpansion+0x558>
  403214:	44 00 00 02 
  403218:	43 00 00 00 	addiu $2,$0,4
  40321c:	04 00 02 00 
  403220:	06 00 00 00 	bne $3,$2,403328 <KeyExpansion+0x558>
  403224:	40 00 02 03 
  403228:	4f 00 00 00 	andi $4,$6,240
  40322c:	f0 00 04 06 
  403230:	42 00 00 00 	addu $4,$4,$10
  403234:	00 04 0a 04 
  403238:	4f 00 00 00 	andi $2,$6,15
  40323c:	0f 00 02 06 
  403240:	42 00 00 00 	addu $4,$4,$2
  403244:	00 04 02 04 
  403248:	57 00 00 00 	srl $3,$6,0x8
  40324c:	08 03 06 00 
  403250:	4f 00 00 00 	andi $3,$3,240
  403254:	f0 00 03 03 
  403258:	42 00 00 00 	addu $3,$3,$10
  40325c:	00 03 0a 03 
  403260:	57 00 00 00 	srl $2,$6,0x8
  403264:	08 02 06 00 
  403268:	4f 00 00 00 	andi $2,$2,15
  40326c:	0f 00 02 02 
  403270:	42 00 00 00 	addu $3,$3,$2
  403274:	00 03 02 03 
  403278:	22 00 00 00 	lbu $2,0($3)
  40327c:	00 00 02 03 
  403280:	22 00 00 00 	lbu $5,0($4)
  403284:	00 00 05 04 
  403288:	55 00 00 00 	sll $2,$2,0x8
  40328c:	08 02 02 00 
  403290:	42 00 00 00 	addu $5,$5,$2
  403294:	00 05 02 05 
  403298:	57 00 00 00 	srl $3,$6,0x10
  40329c:	10 03 06 00 
  4032a0:	4f 00 00 00 	andi $3,$3,240
  4032a4:	f0 00 03 03 
  4032a8:	42 00 00 00 	addu $3,$3,$10
  4032ac:	00 03 0a 03 
  4032b0:	57 00 00 00 	srl $2,$6,0x10
  4032b4:	10 02 06 00 
  4032b8:	4f 00 00 00 	andi $2,$2,15
  4032bc:	0f 00 02 02 
  4032c0:	42 00 00 00 	addu $3,$3,$2
  4032c4:	00 03 02 03 
  4032c8:	22 00 00 00 	lbu $4,0($3)
  4032cc:	00 00 04 03 
  4032d0:	57 00 00 00 	srl $2,$6,0x18
  4032d4:	18 02 06 00 
  4032d8:	4f 00 00 00 	andi $2,$2,15
  4032dc:	0f 00 02 02 
  4032e0:	57 00 00 00 	srl $3,$6,0x1c
  4032e4:	1c 03 06 00 
  4032e8:	55 00 00 00 	sll $3,$3,0x4
  4032ec:	04 03 03 00 
  4032f0:	42 00 00 00 	addu $3,$3,$10
  4032f4:	00 03 0a 03 
  4032f8:	42 00 00 00 	addu $3,$3,$2
  4032fc:	00 03 02 03 
  403300:	22 00 00 00 	lbu $2,0($3)
  403304:	00 00 02 03 
  403308:	55 00 00 00 	sll $4,$4,0x10
  40330c:	10 04 04 00 
  403310:	42 00 00 00 	addu $5,$5,$4
  403314:	00 05 04 05 
  403318:	55 00 00 00 	sll $2,$2,0x18
  40331c:	18 02 02 00 
  403320:	42 00 00 00 	addu $6,$5,$2
  403324:	00 06 02 05 
  403328:	45 00 00 00 	subu $2,$8,$9
  40332c:	00 02 09 08 
  403330:	55 00 00 00 	sll $2,$2,0x2
  403334:	02 02 02 00 
  403338:	42 00 00 00 	addu $2,$2,$12
  40333c:	00 02 0c 02 
  403340:	28 00 00 00 	lw $2,0($2)
  403344:	00 00 02 02 
  403348:	43 00 00 00 	addiu $8,$8,1
  40334c:	01 00 08 08 
  403350:	52 00 00 00 	xor $2,$2,$6
  403354:	00 02 06 02 
  403358:	34 00 00 00 	sw $2,0($11)
  40335c:	00 00 02 0b 
  403360:	43 00 00 00 	addiu $11,$11,4
  403364:	04 00 0b 0b 
  403368:	5b 00 00 00 	slt $2,$8,$13
  40336c:	00 02 0d 08 
  403370:	06 00 00 00 	bne $2,$0,403020 <KeyExpansion+0x250>
  403374:	2a ff 00 02 
  403378:	43 00 00 00 	addiu $29,$29,80
  40337c:	50 00 1d 1d 
  403380:	03 00 00 00 	jr $31
  403384:	00 00 00 1f 

00403388 <aes_encrypt>:
  403388:	43 00 00 00 	addiu $29,$29,-48
  40338c:	d0 ff 1d 1d 
  403390:	34 00 00 00 	sw $31,44($29)
  403394:	2c 00 1f 1d 
  403398:	34 00 00 00 	sw $18,40($29)
  40339c:	28 00 12 1d 
  4033a0:	34 00 00 00 	sw $17,36($29)
  4033a4:	24 00 11 1d 
  4033a8:	34 00 00 00 	sw $16,32($29)
  4033ac:	20 00 10 1d 
  4033b0:	22 00 00 00 	lbu $2,0($4)
  4033b4:	00 00 02 04 
  4033b8:	30 00 00 00 	sb $2,16($29)
  4033bc:	10 00 02 1d 
  4033c0:	22 00 00 00 	lbu $2,1($4)
  4033c4:	01 00 02 04 
  4033c8:	30 00 00 00 	sb $2,20($29)
  4033cc:	14 00 02 1d 
  4033d0:	22 00 00 00 	lbu $2,2($4)
  4033d4:	02 00 02 04 
  4033d8:	30 00 00 00 	sb $2,24($29)
  4033dc:	18 00 02 1d 
  4033e0:	22 00 00 00 	lbu $2,3($4)
  4033e4:	03 00 02 04 
  4033e8:	30 00 00 00 	sb $2,28($29)
  4033ec:	1c 00 02 1d 
  4033f0:	22 00 00 00 	lbu $2,4($4)
  4033f4:	04 00 02 04 
  4033f8:	30 00 00 00 	sb $2,17($29)
  4033fc:	11 00 02 1d 
  403400:	22 00 00 00 	lbu $2,5($4)
  403404:	05 00 02 04 
  403408:	30 00 00 00 	sb $2,21($29)
  40340c:	15 00 02 1d 
  403410:	22 00 00 00 	lbu $2,6($4)
  403414:	06 00 02 04 
  403418:	30 00 00 00 	sb $2,25($29)
  40341c:	19 00 02 1d 
  403420:	22 00 00 00 	lbu $2,7($4)
  403424:	07 00 02 04 
  403428:	30 00 00 00 	sb $2,29($29)
  40342c:	1d 00 02 1d 
  403430:	22 00 00 00 	lbu $2,8($4)
  403434:	08 00 02 04 
  403438:	30 00 00 00 	sb $2,18($29)
  40343c:	12 00 02 1d 
  403440:	22 00 00 00 	lbu $2,9($4)
  403444:	09 00 02 04 
  403448:	30 00 00 00 	sb $2,22($29)
  40344c:	16 00 02 1d 
  403450:	22 00 00 00 	lbu $2,10($4)
  403454:	0a 00 02 04 
  403458:	30 00 00 00 	sb $2,26($29)
  40345c:	1a 00 02 1d 
  403460:	22 00 00 00 	lbu $2,11($4)
  403464:	0b 00 02 04 
  403468:	30 00 00 00 	sb $2,30($29)
  40346c:	1e 00 02 1d 
  403470:	22 00 00 00 	lbu $2,12($4)
  403474:	0c 00 02 04 
  403478:	30 00 00 00 	sb $2,19($29)
  40347c:	13 00 02 1d 
  403480:	22 00 00 00 	lbu $2,13($4)
  403484:	0d 00 02 04 
  403488:	30 00 00 00 	sb $2,23($29)
  40348c:	17 00 02 1d 
  403490:	22 00 00 00 	lbu $2,14($4)
  403494:	0e 00 02 04 
  403498:	42 00 00 00 	addu $17,$0,$5
  40349c:	00 11 05 00 
  4034a0:	30 00 00 00 	sb $2,27($29)
  4034a4:	1b 00 02 1d 
  4034a8:	22 00 00 00 	lbu $2,15($4)
  4034ac:	0f 00 02 04 
  4034b0:	42 00 00 00 	addu $18,$0,$6
  4034b4:	00 12 06 00 
  4034b8:	42 00 00 00 	addu $5,$0,$18
  4034bc:	00 05 12 00 
  4034c0:	43 00 00 00 	addiu $4,$29,16
  4034c4:	10 00 04 1d 
  4034c8:	30 00 00 00 	sb $2,31($29)
  4034cc:	1f 00 02 1d 
  4034d0:	02 00 00 00 	jal 4001f0 <AddRoundKey>
  4034d4:	7c 00 10 00 
  4034d8:	43 00 00 00 	addiu $4,$29,16
  4034dc:	10 00 04 1d 
  4034e0:	02 00 00 00 	jal 400508 <SubBytes>
  4034e4:	42 01 10 00 
  4034e8:	22 00 00 00 	lbu $11,20($29)
  4034ec:	14 00 0b 1d 
  4034f0:	22 00 00 00 	lbu $9,23($29)
  4034f4:	17 00 09 1d 
  4034f8:	22 00 00 00 	lbu $10,26($29)
  4034fc:	1a 00 0a 1d 
  403500:	22 00 00 00 	lbu $8,27($29)
  403504:	1b 00 08 1d 
  403508:	22 00 00 00 	lbu $2,21($29)
  40350c:	15 00 02 1d 
  403510:	22 00 00 00 	lbu $3,22($29)
  403514:	16 00 03 1d 
  403518:	22 00 00 00 	lbu $7,31($29)
  40351c:	1f 00 07 1d 
  403520:	22 00 00 00 	lbu $5,30($29)
  403524:	1e 00 05 1d 
  403528:	22 00 00 00 	lbu $6,29($29)
  40352c:	1d 00 06 1d 
  403530:	30 00 00 00 	sb $11,23($29)
  403534:	17 00 0b 1d 
  403538:	22 00 00 00 	lbu $11,24($29)
  40353c:	18 00 0b 1d 
  403540:	30 00 00 00 	sb $11,26($29)
  403544:	1a 00 0b 1d 
  403548:	22 00 00 00 	lbu $11,25($29)
  40354c:	19 00 0b 1d 
  403550:	30 00 00 00 	sb $11,27($29)
  403554:	1b 00 0b 1d 
  403558:	22 00 00 00 	lbu $11,28($29)
  40355c:	1c 00 0b 1d 
  403560:	43 00 00 00 	addiu $16,$29,16
  403564:	10 00 10 1d 
  403568:	42 00 00 00 	addu $4,$0,$16
  40356c:	00 04 10 00 
  403570:	30 00 00 00 	sb $2,20($29)
  403574:	14 00 02 1d 
  403578:	30 00 00 00 	sb $3,21($29)
  40357c:	15 00 03 1d 
  403580:	30 00 00 00 	sb $9,22($29)
  403584:	16 00 09 1d 
  403588:	30 00 00 00 	sb $5,31($29)
  40358c:	1f 00 05 1d 
  403590:	30 00 00 00 	sb $6,30($29)
  403594:	1e 00 06 1d 
  403598:	30 00 00 00 	sb $10,24($29)
  40359c:	18 00 0a 1d 
  4035a0:	30 00 00 00 	sb $8,25($29)
  4035a4:	19 00 08 1d 
  4035a8:	30 00 00 00 	sb $7,28($29)
  4035ac:	1c 00 07 1d 
  4035b0:	30 00 00 00 	sb $11,29($29)
  4035b4:	1d 00 0b 1d 
  4035b8:	02 00 00 00 	jal 400dc8 <MixColumns>
  4035bc:	72 03 10 00 
  4035c0:	42 00 00 00 	addu $4,$0,$16
  4035c4:	00 04 10 00 
  4035c8:	43 00 00 00 	addiu $5,$18,16
  4035cc:	10 00 05 12 
  4035d0:	02 00 00 00 	jal 4001f0 <AddRoundKey>
  4035d4:	7c 00 10 00 
  4035d8:	42 00 00 00 	addu $4,$0,$16
  4035dc:	00 04 10 00 
  4035e0:	02 00 00 00 	jal 400508 <SubBytes>
  4035e4:	42 01 10 00 
  4035e8:	22 00 00 00 	lbu $11,20($29)
  4035ec:	14 00 0b 1d 
  4035f0:	22 00 00 00 	lbu $9,23($29)
  4035f4:	17 00 09 1d 
  4035f8:	22 00 00 00 	lbu $10,26($29)
  4035fc:	1a 00 0a 1d 
  403600:	22 00 00 00 	lbu $8,27($29)
  403604:	1b 00 08 1d 
  403608:	22 00 00 00 	lbu $2,21($29)
  40360c:	15 00 02 1d 
  403610:	22 00 00 00 	lbu $3,22($29)
  403614:	16 00 03 1d 
  403618:	22 00 00 00 	lbu $7,31($29)
  40361c:	1f 00 07 1d 
  403620:	22 00 00 00 	lbu $5,30($29)
  403624:	1e 00 05 1d 
  403628:	22 00 00 00 	lbu $6,29($29)
  40362c:	1d 00 06 1d 
  403630:	30 00 00 00 	sb $11,23($29)
  403634:	17 00 0b 1d 
  403638:	22 00 00 00 	lbu $11,24($29)
  40363c:	18 00 0b 1d 
  403640:	30 00 00 00 	sb $11,26($29)
  403644:	1a 00 0b 1d 
  403648:	22 00 00 00 	lbu $11,25($29)
  40364c:	19 00 0b 1d 
  403650:	30 00 00 00 	sb $11,27($29)
  403654:	1b 00 0b 1d 
  403658:	22 00 00 00 	lbu $11,28($29)
  40365c:	1c 00 0b 1d 
  403660:	42 00 00 00 	addu $4,$0,$16
  403664:	00 04 10 00 
  403668:	30 00 00 00 	sb $2,20($29)
  40366c:	14 00 02 1d 
  403670:	30 00 00 00 	sb $3,21($29)
  403674:	15 00 03 1d 
  403678:	30 00 00 00 	sb $9,22($29)
  40367c:	16 00 09 1d 
  403680:	30 00 00 00 	sb $5,31($29)
  403684:	1f 00 05 1d 
  403688:	30 00 00 00 	sb $6,30($29)
  40368c:	1e 00 06 1d 
  403690:	30 00 00 00 	sb $10,24($29)
  403694:	18 00 0a 1d 
  403698:	30 00 00 00 	sb $8,25($29)
  40369c:	19 00 08 1d 
  4036a0:	30 00 00 00 	sb $7,28($29)
  4036a4:	1c 00 07 1d 
  4036a8:	30 00 00 00 	sb $11,29($29)
  4036ac:	1d 00 0b 1d 
  4036b0:	02 00 00 00 	jal 400dc8 <MixColumns>
  4036b4:	72 03 10 00 
  4036b8:	42 00 00 00 	addu $4,$0,$16
  4036bc:	00 04 10 00 
  4036c0:	43 00 00 00 	addiu $5,$18,32
  4036c4:	20 00 05 12 
  4036c8:	02 00 00 00 	jal 4001f0 <AddRoundKey>
  4036cc:	7c 00 10 00 
  4036d0:	42 00 00 00 	addu $4,$0,$16
  4036d4:	00 04 10 00 
  4036d8:	02 00 00 00 	jal 400508 <SubBytes>
  4036dc:	42 01 10 00 
  4036e0:	22 00 00 00 	lbu $11,20($29)
  4036e4:	14 00 0b 1d 
  4036e8:	22 00 00 00 	lbu $9,23($29)
  4036ec:	17 00 09 1d 
  4036f0:	22 00 00 00 	lbu $10,26($29)
  4036f4:	1a 00 0a 1d 
  4036f8:	22 00 00 00 	lbu $8,27($29)
  4036fc:	1b 00 08 1d 
  403700:	22 00 00 00 	lbu $2,21($29)
  403704:	15 00 02 1d 
  403708:	22 00 00 00 	lbu $3,22($29)
  40370c:	16 00 03 1d 
  403710:	22 00 00 00 	lbu $7,31($29)
  403714:	1f 00 07 1d 
  403718:	22 00 00 00 	lbu $5,30($29)
  40371c:	1e 00 05 1d 
  403720:	22 00 00 00 	lbu $6,29($29)
  403724:	1d 00 06 1d 
  403728:	30 00 00 00 	sb $11,23($29)
  40372c:	17 00 0b 1d 
  403730:	22 00 00 00 	lbu $11,24($29)
  403734:	18 00 0b 1d 
  403738:	30 00 00 00 	sb $11,26($29)
  40373c:	1a 00 0b 1d 
  403740:	22 00 00 00 	lbu $11,25($29)
  403744:	19 00 0b 1d 
  403748:	30 00 00 00 	sb $11,27($29)
  40374c:	1b 00 0b 1d 
  403750:	22 00 00 00 	lbu $11,28($29)
  403754:	1c 00 0b 1d 
  403758:	42 00 00 00 	addu $4,$0,$16
  40375c:	00 04 10 00 
  403760:	30 00 00 00 	sb $2,20($29)
  403764:	14 00 02 1d 
  403768:	30 00 00 00 	sb $3,21($29)
  40376c:	15 00 03 1d 
  403770:	30 00 00 00 	sb $9,22($29)
  403774:	16 00 09 1d 
  403778:	30 00 00 00 	sb $5,31($29)
  40377c:	1f 00 05 1d 
  403780:	30 00 00 00 	sb $6,30($29)
  403784:	1e 00 06 1d 
  403788:	30 00 00 00 	sb $10,24($29)
  40378c:	18 00 0a 1d 
  403790:	30 00 00 00 	sb $8,25($29)
  403794:	19 00 08 1d 
  403798:	30 00 00 00 	sb $7,28($29)
  40379c:	1c 00 07 1d 
  4037a0:	30 00 00 00 	sb $11,29($29)
  4037a4:	1d 00 0b 1d 
  4037a8:	02 00 00 00 	jal 400dc8 <MixColumns>
  4037ac:	72 03 10 00 
  4037b0:	42 00 00 00 	addu $4,$0,$16
  4037b4:	00 04 10 00 
  4037b8:	43 00 00 00 	addiu $5,$18,48
  4037bc:	30 00 05 12 
  4037c0:	02 00 00 00 	jal 4001f0 <AddRoundKey>
  4037c4:	7c 00 10 00 
  4037c8:	42 00 00 00 	addu $4,$0,$16
  4037cc:	00 04 10 00 
  4037d0:	02 00 00 00 	jal 400508 <SubBytes>
  4037d4:	42 01 10 00 
  4037d8:	22 00 00 00 	lbu $11,20($29)
  4037dc:	14 00 0b 1d 
  4037e0:	22 00 00 00 	lbu $9,23($29)
  4037e4:	17 00 09 1d 
  4037e8:	22 00 00 00 	lbu $10,26($29)
  4037ec:	1a 00 0a 1d 
  4037f0:	22 00 00 00 	lbu $8,27($29)
  4037f4:	1b 00 08 1d 
  4037f8:	22 00 00 00 	lbu $2,21($29)
  4037fc:	15 00 02 1d 
  403800:	22 00 00 00 	lbu $3,22($29)
  403804:	16 00 03 1d 
  403808:	22 00 00 00 	lbu $7,31($29)
  40380c:	1f 00 07 1d 
  403810:	22 00 00 00 	lbu $5,30($29)
  403814:	1e 00 05 1d 
  403818:	22 00 00 00 	lbu $6,29($29)
  40381c:	1d 00 06 1d 
  403820:	30 00 00 00 	sb $11,23($29)
  403824:	17 00 0b 1d 
  403828:	22 00 00 00 	lbu $11,24($29)
  40382c:	18 00 0b 1d 
  403830:	30 00 00 00 	sb $11,26($29)
  403834:	1a 00 0b 1d 
  403838:	22 00 00 00 	lbu $11,25($29)
  40383c:	19 00 0b 1d 
  403840:	30 00 00 00 	sb $11,27($29)
  403844:	1b 00 0b 1d 
  403848:	22 00 00 00 	lbu $11,28($29)
  40384c:	1c 00 0b 1d 
  403850:	42 00 00 00 	addu $4,$0,$16
  403854:	00 04 10 00 
  403858:	30 00 00 00 	sb $2,20($29)
  40385c:	14 00 02 1d 
  403860:	30 00 00 00 	sb $3,21($29)
  403864:	15 00 03 1d 
  403868:	30 00 00 00 	sb $9,22($29)
  40386c:	16 00 09 1d 
  403870:	30 00 00 00 	sb $5,31($29)
  403874:	1f 00 05 1d 
  403878:	30 00 00 00 	sb $6,30($29)
  40387c:	1e 00 06 1d 
  403880:	30 00 00 00 	sb $10,24($29)
  403884:	18 00 0a 1d 
  403888:	30 00 00 00 	sb $8,25($29)
  40388c:	19 00 08 1d 
  403890:	30 00 00 00 	sb $7,28($29)
  403894:	1c 00 07 1d 
  403898:	30 00 00 00 	sb $11,29($29)
  40389c:	1d 00 0b 1d 
  4038a0:	02 00 00 00 	jal 400dc8 <MixColumns>
  4038a4:	72 03 10 00 
  4038a8:	42 00 00 00 	addu $4,$0,$16
  4038ac:	00 04 10 00 
  4038b0:	43 00 00 00 	addiu $5,$18,64
  4038b4:	40 00 05 12 
  4038b8:	02 00 00 00 	jal 4001f0 <AddRoundKey>
  4038bc:	7c 00 10 00 
  4038c0:	42 00 00 00 	addu $4,$0,$16
  4038c4:	00 04 10 00 
  4038c8:	02 00 00 00 	jal 400508 <SubBytes>
  4038cc:	42 01 10 00 
  4038d0:	22 00 00 00 	lbu $11,20($29)
  4038d4:	14 00 0b 1d 
  4038d8:	22 00 00 00 	lbu $9,23($29)
  4038dc:	17 00 09 1d 
  4038e0:	22 00 00 00 	lbu $10,26($29)
  4038e4:	1a 00 0a 1d 
  4038e8:	22 00 00 00 	lbu $8,27($29)
  4038ec:	1b 00 08 1d 
  4038f0:	22 00 00 00 	lbu $2,21($29)
  4038f4:	15 00 02 1d 
  4038f8:	22 00 00 00 	lbu $3,22($29)
  4038fc:	16 00 03 1d 
  403900:	22 00 00 00 	lbu $7,31($29)
  403904:	1f 00 07 1d 
  403908:	22 00 00 00 	lbu $5,30($29)
  40390c:	1e 00 05 1d 
  403910:	22 00 00 00 	lbu $6,29($29)
  403914:	1d 00 06 1d 
  403918:	30 00 00 00 	sb $11,23($29)
  40391c:	17 00 0b 1d 
  403920:	22 00 00 00 	lbu $11,24($29)
  403924:	18 00 0b 1d 
  403928:	30 00 00 00 	sb $11,26($29)
  40392c:	1a 00 0b 1d 
  403930:	22 00 00 00 	lbu $11,25($29)
  403934:	19 00 0b 1d 
  403938:	30 00 00 00 	sb $11,27($29)
  40393c:	1b 00 0b 1d 
  403940:	22 00 00 00 	lbu $11,28($29)
  403944:	1c 00 0b 1d 
  403948:	42 00 00 00 	addu $4,$0,$16
  40394c:	00 04 10 00 
  403950:	30 00 00 00 	sb $2,20($29)
  403954:	14 00 02 1d 
  403958:	30 00 00 00 	sb $3,21($29)
  40395c:	15 00 03 1d 
  403960:	30 00 00 00 	sb $9,22($29)
  403964:	16 00 09 1d 
  403968:	30 00 00 00 	sb $5,31($29)
  40396c:	1f 00 05 1d 
  403970:	30 00 00 00 	sb $6,30($29)
  403974:	1e 00 06 1d 
  403978:	30 00 00 00 	sb $10,24($29)
  40397c:	18 00 0a 1d 
  403980:	30 00 00 00 	sb $8,25($29)
  403984:	19 00 08 1d 
  403988:	30 00 00 00 	sb $7,28($29)
  40398c:	1c 00 07 1d 
  403990:	30 00 00 00 	sb $11,29($29)
  403994:	1d 00 0b 1d 
  403998:	02 00 00 00 	jal 400dc8 <MixColumns>
  40399c:	72 03 10 00 
  4039a0:	42 00 00 00 	addu $4,$0,$16
  4039a4:	00 04 10 00 
  4039a8:	43 00 00 00 	addiu $5,$18,80
  4039ac:	50 00 05 12 
  4039b0:	02 00 00 00 	jal 4001f0 <AddRoundKey>
  4039b4:	7c 00 10 00 
  4039b8:	42 00 00 00 	addu $4,$0,$16
  4039bc:	00 04 10 00 
  4039c0:	02 00 00 00 	jal 400508 <SubBytes>
  4039c4:	42 01 10 00 
  4039c8:	22 00 00 00 	lbu $11,20($29)
  4039cc:	14 00 0b 1d 
  4039d0:	22 00 00 00 	lbu $9,23($29)
  4039d4:	17 00 09 1d 
  4039d8:	22 00 00 00 	lbu $10,26($29)
  4039dc:	1a 00 0a 1d 
  4039e0:	22 00 00 00 	lbu $8,27($29)
  4039e4:	1b 00 08 1d 
  4039e8:	22 00 00 00 	lbu $2,21($29)
  4039ec:	15 00 02 1d 
  4039f0:	22 00 00 00 	lbu $3,22($29)
  4039f4:	16 00 03 1d 
  4039f8:	22 00 00 00 	lbu $7,31($29)
  4039fc:	1f 00 07 1d 
  403a00:	22 00 00 00 	lbu $5,30($29)
  403a04:	1e 00 05 1d 
  403a08:	22 00 00 00 	lbu $6,29($29)
  403a0c:	1d 00 06 1d 
  403a10:	30 00 00 00 	sb $11,23($29)
  403a14:	17 00 0b 1d 
  403a18:	22 00 00 00 	lbu $11,24($29)
  403a1c:	18 00 0b 1d 
  403a20:	30 00 00 00 	sb $11,26($29)
  403a24:	1a 00 0b 1d 
  403a28:	22 00 00 00 	lbu $11,25($29)
  403a2c:	19 00 0b 1d 
  403a30:	30 00 00 00 	sb $11,27($29)
  403a34:	1b 00 0b 1d 
  403a38:	22 00 00 00 	lbu $11,28($29)
  403a3c:	1c 00 0b 1d 
  403a40:	42 00 00 00 	addu $4,$0,$16
  403a44:	00 04 10 00 
  403a48:	30 00 00 00 	sb $2,20($29)
  403a4c:	14 00 02 1d 
  403a50:	30 00 00 00 	sb $3,21($29)
  403a54:	15 00 03 1d 
  403a58:	30 00 00 00 	sb $9,22($29)
  403a5c:	16 00 09 1d 
  403a60:	30 00 00 00 	sb $5,31($29)
  403a64:	1f 00 05 1d 
  403a68:	30 00 00 00 	sb $6,30($29)
  403a6c:	1e 00 06 1d 
  403a70:	30 00 00 00 	sb $10,24($29)
  403a74:	18 00 0a 1d 
  403a78:	30 00 00 00 	sb $8,25($29)
  403a7c:	19 00 08 1d 
  403a80:	30 00 00 00 	sb $7,28($29)
  403a84:	1c 00 07 1d 
  403a88:	30 00 00 00 	sb $11,29($29)
  403a8c:	1d 00 0b 1d 
  403a90:	02 00 00 00 	jal 400dc8 <MixColumns>
  403a94:	72 03 10 00 
  403a98:	42 00 00 00 	addu $4,$0,$16
  403a9c:	00 04 10 00 
  403aa0:	43 00 00 00 	addiu $5,$18,96
  403aa4:	60 00 05 12 
  403aa8:	02 00 00 00 	jal 4001f0 <AddRoundKey>
  403aac:	7c 00 10 00 
  403ab0:	42 00 00 00 	addu $4,$0,$16
  403ab4:	00 04 10 00 
  403ab8:	02 00 00 00 	jal 400508 <SubBytes>
  403abc:	42 01 10 00 
  403ac0:	22 00 00 00 	lbu $11,20($29)
  403ac4:	14 00 0b 1d 
  403ac8:	22 00 00 00 	lbu $9,23($29)
  403acc:	17 00 09 1d 
  403ad0:	22 00 00 00 	lbu $10,26($29)
  403ad4:	1a 00 0a 1d 
  403ad8:	22 00 00 00 	lbu $8,27($29)
  403adc:	1b 00 08 1d 
  403ae0:	22 00 00 00 	lbu $2,21($29)
  403ae4:	15 00 02 1d 
  403ae8:	22 00 00 00 	lbu $3,22($29)
  403aec:	16 00 03 1d 
  403af0:	22 00 00 00 	lbu $7,31($29)
  403af4:	1f 00 07 1d 
  403af8:	22 00 00 00 	lbu $5,30($29)
  403afc:	1e 00 05 1d 
  403b00:	22 00 00 00 	lbu $6,29($29)
  403b04:	1d 00 06 1d 
  403b08:	30 00 00 00 	sb $11,23($29)
  403b0c:	17 00 0b 1d 
  403b10:	22 00 00 00 	lbu $11,24($29)
  403b14:	18 00 0b 1d 
  403b18:	30 00 00 00 	sb $11,26($29)
  403b1c:	1a 00 0b 1d 
  403b20:	22 00 00 00 	lbu $11,25($29)
  403b24:	19 00 0b 1d 
  403b28:	30 00 00 00 	sb $11,27($29)
  403b2c:	1b 00 0b 1d 
  403b30:	22 00 00 00 	lbu $11,28($29)
  403b34:	1c 00 0b 1d 
  403b38:	42 00 00 00 	addu $4,$0,$16
  403b3c:	00 04 10 00 
  403b40:	30 00 00 00 	sb $2,20($29)
  403b44:	14 00 02 1d 
  403b48:	30 00 00 00 	sb $3,21($29)
  403b4c:	15 00 03 1d 
  403b50:	30 00 00 00 	sb $9,22($29)
  403b54:	16 00 09 1d 
  403b58:	30 00 00 00 	sb $5,31($29)
  403b5c:	1f 00 05 1d 
  403b60:	30 00 00 00 	sb $6,30($29)
  403b64:	1e 00 06 1d 
  403b68:	30 00 00 00 	sb $10,24($29)
  403b6c:	18 00 0a 1d 
  403b70:	30 00 00 00 	sb $8,25($29)
  403b74:	19 00 08 1d 
  403b78:	30 00 00 00 	sb $7,28($29)
  403b7c:	1c 00 07 1d 
  403b80:	30 00 00 00 	sb $11,29($29)
  403b84:	1d 00 0b 1d 
  403b88:	02 00 00 00 	jal 400dc8 <MixColumns>
  403b8c:	72 03 10 00 
  403b90:	42 00 00 00 	addu $4,$0,$16
  403b94:	00 04 10 00 
  403b98:	43 00 00 00 	addiu $5,$18,112
  403b9c:	70 00 05 12 
  403ba0:	02 00 00 00 	jal 4001f0 <AddRoundKey>
  403ba4:	7c 00 10 00 
  403ba8:	42 00 00 00 	addu $4,$0,$16
  403bac:	00 04 10 00 
  403bb0:	02 00 00 00 	jal 400508 <SubBytes>
  403bb4:	42 01 10 00 
  403bb8:	22 00 00 00 	lbu $11,20($29)
  403bbc:	14 00 0b 1d 
  403bc0:	22 00 00 00 	lbu $9,23($29)
  403bc4:	17 00 09 1d 
  403bc8:	22 00 00 00 	lbu $10,26($29)
  403bcc:	1a 00 0a 1d 
  403bd0:	22 00 00 00 	lbu $8,27($29)
  403bd4:	1b 00 08 1d 
  403bd8:	22 00 00 00 	lbu $2,21($29)
  403bdc:	15 00 02 1d 
  403be0:	22 00 00 00 	lbu $3,22($29)
  403be4:	16 00 03 1d 
  403be8:	22 00 00 00 	lbu $7,31($29)
  403bec:	1f 00 07 1d 
  403bf0:	22 00 00 00 	lbu $5,30($29)
  403bf4:	1e 00 05 1d 
  403bf8:	22 00 00 00 	lbu $6,29($29)
  403bfc:	1d 00 06 1d 
  403c00:	30 00 00 00 	sb $11,23($29)
  403c04:	17 00 0b 1d 
  403c08:	22 00 00 00 	lbu $11,24($29)
  403c0c:	18 00 0b 1d 
  403c10:	30 00 00 00 	sb $11,26($29)
  403c14:	1a 00 0b 1d 
  403c18:	22 00 00 00 	lbu $11,25($29)
  403c1c:	19 00 0b 1d 
  403c20:	30 00 00 00 	sb $11,27($29)
  403c24:	1b 00 0b 1d 
  403c28:	22 00 00 00 	lbu $11,28($29)
  403c2c:	1c 00 0b 1d 
  403c30:	42 00 00 00 	addu $4,$0,$16
  403c34:	00 04 10 00 
  403c38:	30 00 00 00 	sb $2,20($29)
  403c3c:	14 00 02 1d 
  403c40:	30 00 00 00 	sb $3,21($29)
  403c44:	15 00 03 1d 
  403c48:	30 00 00 00 	sb $9,22($29)
  403c4c:	16 00 09 1d 
  403c50:	30 00 00 00 	sb $5,31($29)
  403c54:	1f 00 05 1d 
  403c58:	30 00 00 00 	sb $6,30($29)
  403c5c:	1e 00 06 1d 
  403c60:	30 00 00 00 	sb $10,24($29)
  403c64:	18 00 0a 1d 
  403c68:	30 00 00 00 	sb $8,25($29)
  403c6c:	19 00 08 1d 
  403c70:	30 00 00 00 	sb $7,28($29)
  403c74:	1c 00 07 1d 
  403c78:	30 00 00 00 	sb $11,29($29)
  403c7c:	1d 00 0b 1d 
  403c80:	02 00 00 00 	jal 400dc8 <MixColumns>
  403c84:	72 03 10 00 
  403c88:	42 00 00 00 	addu $4,$0,$16
  403c8c:	00 04 10 00 
  403c90:	43 00 00 00 	addiu $5,$18,128
  403c94:	80 00 05 12 
  403c98:	02 00 00 00 	jal 4001f0 <AddRoundKey>
  403c9c:	7c 00 10 00 
  403ca0:	42 00 00 00 	addu $4,$0,$16
  403ca4:	00 04 10 00 
  403ca8:	02 00 00 00 	jal 400508 <SubBytes>
  403cac:	42 01 10 00 
  403cb0:	22 00 00 00 	lbu $11,20($29)
  403cb4:	14 00 0b 1d 
  403cb8:	22 00 00 00 	lbu $9,23($29)
  403cbc:	17 00 09 1d 
  403cc0:	22 00 00 00 	lbu $10,26($29)
  403cc4:	1a 00 0a 1d 
  403cc8:	22 00 00 00 	lbu $8,27($29)
  403ccc:	1b 00 08 1d 
  403cd0:	22 00 00 00 	lbu $2,21($29)
  403cd4:	15 00 02 1d 
  403cd8:	22 00 00 00 	lbu $3,22($29)
  403cdc:	16 00 03 1d 
  403ce0:	22 00 00 00 	lbu $7,31($29)
  403ce4:	1f 00 07 1d 
  403ce8:	22 00 00 00 	lbu $5,30($29)
  403cec:	1e 00 05 1d 
  403cf0:	22 00 00 00 	lbu $6,29($29)
  403cf4:	1d 00 06 1d 
  403cf8:	30 00 00 00 	sb $11,23($29)
  403cfc:	17 00 0b 1d 
  403d00:	22 00 00 00 	lbu $11,24($29)
  403d04:	18 00 0b 1d 
  403d08:	30 00 00 00 	sb $11,26($29)
  403d0c:	1a 00 0b 1d 
  403d10:	22 00 00 00 	lbu $11,25($29)
  403d14:	19 00 0b 1d 
  403d18:	30 00 00 00 	sb $11,27($29)
  403d1c:	1b 00 0b 1d 
  403d20:	22 00 00 00 	lbu $11,28($29)
  403d24:	1c 00 0b 1d 
  403d28:	42 00 00 00 	addu $4,$0,$16
  403d2c:	00 04 10 00 
  403d30:	30 00 00 00 	sb $2,20($29)
  403d34:	14 00 02 1d 
  403d38:	30 00 00 00 	sb $3,21($29)
  403d3c:	15 00 03 1d 
  403d40:	30 00 00 00 	sb $9,22($29)
  403d44:	16 00 09 1d 
  403d48:	30 00 00 00 	sb $5,31($29)
  403d4c:	1f 00 05 1d 
  403d50:	30 00 00 00 	sb $6,30($29)
  403d54:	1e 00 06 1d 
  403d58:	30 00 00 00 	sb $10,24($29)
  403d5c:	18 00 0a 1d 
  403d60:	30 00 00 00 	sb $8,25($29)
  403d64:	19 00 08 1d 
  403d68:	30 00 00 00 	sb $7,28($29)
  403d6c:	1c 00 07 1d 
  403d70:	30 00 00 00 	sb $11,29($29)
  403d74:	1d 00 0b 1d 
  403d78:	02 00 00 00 	jal 400dc8 <MixColumns>
  403d7c:	72 03 10 00 
  403d80:	42 00 00 00 	addu $4,$0,$16
  403d84:	00 04 10 00 
  403d88:	43 00 00 00 	addiu $5,$18,144
  403d8c:	90 00 05 12 
  403d90:	02 00 00 00 	jal 4001f0 <AddRoundKey>
  403d94:	7c 00 10 00 
  403d98:	22 00 00 00 	lbu $2,16($29)
  403d9c:	10 00 02 1d 
  403da0:	30 00 00 00 	sb $2,0($17)
  403da4:	00 00 02 11 
  403da8:	22 00 00 00 	lbu $2,20($29)
  403dac:	14 00 02 1d 
  403db0:	30 00 00 00 	sb $2,1($17)
  403db4:	01 00 02 11 
  403db8:	22 00 00 00 	lbu $2,24($29)
  403dbc:	18 00 02 1d 
  403dc0:	30 00 00 00 	sb $2,2($17)
  403dc4:	02 00 02 11 
  403dc8:	22 00 00 00 	lbu $2,28($29)
  403dcc:	1c 00 02 1d 
  403dd0:	30 00 00 00 	sb $2,3($17)
  403dd4:	03 00 02 11 
  403dd8:	22 00 00 00 	lbu $2,17($29)
  403ddc:	11 00 02 1d 
  403de0:	30 00 00 00 	sb $2,4($17)
  403de4:	04 00 02 11 
  403de8:	22 00 00 00 	lbu $2,21($29)
  403dec:	15 00 02 1d 
  403df0:	30 00 00 00 	sb $2,5($17)
  403df4:	05 00 02 11 
  403df8:	22 00 00 00 	lbu $2,25($29)
  403dfc:	19 00 02 1d 
  403e00:	30 00 00 00 	sb $2,6($17)
  403e04:	06 00 02 11 
  403e08:	22 00 00 00 	lbu $2,29($29)
  403e0c:	1d 00 02 1d 
  403e10:	30 00 00 00 	sb $2,7($17)
  403e14:	07 00 02 11 
  403e18:	22 00 00 00 	lbu $2,18($29)
  403e1c:	12 00 02 1d 
  403e20:	30 00 00 00 	sb $2,8($17)
  403e24:	08 00 02 11 
  403e28:	22 00 00 00 	lbu $2,22($29)
  403e2c:	16 00 02 1d 
  403e30:	30 00 00 00 	sb $2,9($17)
  403e34:	09 00 02 11 
  403e38:	22 00 00 00 	lbu $2,26($29)
  403e3c:	1a 00 02 1d 
  403e40:	30 00 00 00 	sb $2,10($17)
  403e44:	0a 00 02 11 
  403e48:	22 00 00 00 	lbu $2,30($29)
  403e4c:	1e 00 02 1d 
  403e50:	30 00 00 00 	sb $2,11($17)
  403e54:	0b 00 02 11 
  403e58:	22 00 00 00 	lbu $2,19($29)
  403e5c:	13 00 02 1d 
  403e60:	30 00 00 00 	sb $2,12($17)
  403e64:	0c 00 02 11 
  403e68:	22 00 00 00 	lbu $2,23($29)
  403e6c:	17 00 02 1d 
  403e70:	30 00 00 00 	sb $2,13($17)
  403e74:	0d 00 02 11 
  403e78:	22 00 00 00 	lbu $2,27($29)
  403e7c:	1b 00 02 1d 
  403e80:	30 00 00 00 	sb $2,14($17)
  403e84:	0e 00 02 11 
  403e88:	22 00 00 00 	lbu $2,31($29)
  403e8c:	1f 00 02 1d 
  403e90:	30 00 00 00 	sb $2,15($17)
  403e94:	0f 00 02 11 
  403e98:	28 00 00 00 	lw $31,44($29)
  403e9c:	2c 00 1f 1d 
  403ea0:	28 00 00 00 	lw $18,40($29)
  403ea4:	28 00 12 1d 
  403ea8:	28 00 00 00 	lw $17,36($29)
  403eac:	24 00 11 1d 
  403eb0:	28 00 00 00 	lw $16,32($29)
  403eb4:	20 00 10 1d 
  403eb8:	43 00 00 00 	addiu $29,$29,48
  403ebc:	30 00 1d 1d 
  403ec0:	03 00 00 00 	jr $31
  403ec4:	00 00 00 1f 

00403ec8 <aes_decrypt>:
  403ec8:	43 00 00 00 	addiu $29,$29,-48
  403ecc:	d0 ff 1d 1d 
  403ed0:	34 00 00 00 	sw $31,44($29)
  403ed4:	2c 00 1f 1d 
  403ed8:	34 00 00 00 	sw $18,40($29)
  403edc:	28 00 12 1d 
  403ee0:	34 00 00 00 	sw $17,36($29)
  403ee4:	24 00 11 1d 
  403ee8:	34 00 00 00 	sw $16,32($29)
  403eec:	20 00 10 1d 
  403ef0:	22 00 00 00 	lbu $2,0($4)
  403ef4:	00 00 02 04 
  403ef8:	30 00 00 00 	sb $2,16($29)
  403efc:	10 00 02 1d 
  403f00:	22 00 00 00 	lbu $2,1($4)
  403f04:	01 00 02 04 
  403f08:	30 00 00 00 	sb $2,20($29)
  403f0c:	14 00 02 1d 
  403f10:	22 00 00 00 	lbu $2,2($4)
  403f14:	02 00 02 04 
  403f18:	30 00 00 00 	sb $2,24($29)
  403f1c:	18 00 02 1d 
  403f20:	22 00 00 00 	lbu $2,3($4)
  403f24:	03 00 02 04 
  403f28:	30 00 00 00 	sb $2,28($29)
  403f2c:	1c 00 02 1d 
  403f30:	22 00 00 00 	lbu $2,4($4)
  403f34:	04 00 02 04 
  403f38:	30 00 00 00 	sb $2,17($29)
  403f3c:	11 00 02 1d 
  403f40:	22 00 00 00 	lbu $2,5($4)
  403f44:	05 00 02 04 
  403f48:	30 00 00 00 	sb $2,21($29)
  403f4c:	15 00 02 1d 
  403f50:	22 00 00 00 	lbu $2,6($4)
  403f54:	06 00 02 04 
  403f58:	30 00 00 00 	sb $2,25($29)
  403f5c:	19 00 02 1d 
  403f60:	22 00 00 00 	lbu $2,7($4)
  403f64:	07 00 02 04 
  403f68:	30 00 00 00 	sb $2,29($29)
  403f6c:	1d 00 02 1d 
  403f70:	22 00 00 00 	lbu $2,8($4)
  403f74:	08 00 02 04 
  403f78:	30 00 00 00 	sb $2,18($29)
  403f7c:	12 00 02 1d 
  403f80:	22 00 00 00 	lbu $2,9($4)
  403f84:	09 00 02 04 
  403f88:	30 00 00 00 	sb $2,22($29)
  403f8c:	16 00 02 1d 
  403f90:	22 00 00 00 	lbu $2,10($4)
  403f94:	0a 00 02 04 
  403f98:	30 00 00 00 	sb $2,26($29)
  403f9c:	1a 00 02 1d 
  403fa0:	22 00 00 00 	lbu $2,11($4)
  403fa4:	0b 00 02 04 
  403fa8:	30 00 00 00 	sb $2,30($29)
  403fac:	1e 00 02 1d 
  403fb0:	22 00 00 00 	lbu $2,12($4)
  403fb4:	0c 00 02 04 
  403fb8:	30 00 00 00 	sb $2,19($29)
  403fbc:	13 00 02 1d 
  403fc0:	22 00 00 00 	lbu $2,13($4)
  403fc4:	0d 00 02 04 
  403fc8:	30 00 00 00 	sb $2,23($29)
  403fcc:	17 00 02 1d 
  403fd0:	22 00 00 00 	lbu $2,14($4)
  403fd4:	0e 00 02 04 
  403fd8:	30 00 00 00 	sb $2,27($29)
  403fdc:	1b 00 02 1d 
  403fe0:	22 00 00 00 	lbu $2,15($4)
  403fe4:	0f 00 02 04 
  403fe8:	42 00 00 00 	addu $18,$0,$5
  403fec:	00 12 05 00 
  403ff0:	42 00 00 00 	addu $17,$0,$6
  403ff4:	00 11 06 00 
  403ff8:	30 00 00 00 	sb $2,31($29)
  403ffc:	1f 00 02 1d 
  404000:	5c 00 00 00 	slti $2,$7,129
  404004:	81 00 02 07 
  404008:	06 00 00 00 	bne $2,$0,404450 <aes_decrypt+0x588>
  40400c:	10 01 00 02 
  404010:	5c 00 00 00 	slti $2,$7,193
  404014:	c1 00 02 07 
  404018:	06 00 00 00 	bne $2,$0,404238 <aes_decrypt+0x370>
  40401c:	86 00 00 02 
  404020:	43 00 00 00 	addiu $4,$29,16
  404024:	10 00 04 1d 
  404028:	43 00 00 00 	addiu $5,$17,224
  40402c:	e0 00 05 11 
  404030:	02 00 00 00 	jal 4001f0 <AddRoundKey>
  404034:	7c 00 10 00 
  404038:	22 00 00 00 	lbu $11,23($29)
  40403c:	17 00 0b 1d 
  404040:	22 00 00 00 	lbu $9,20($29)
  404044:	14 00 09 1d 
  404048:	22 00 00 00 	lbu $10,25($29)
  40404c:	19 00 0a 1d 
  404050:	22 00 00 00 	lbu $8,24($29)
  404054:	18 00 08 1d 
  404058:	22 00 00 00 	lbu $2,22($29)
  40405c:	16 00 02 1d 
  404060:	22 00 00 00 	lbu $3,21($29)
  404064:	15 00 03 1d 
  404068:	22 00 00 00 	lbu $7,28($29)
  40406c:	1c 00 07 1d 
  404070:	22 00 00 00 	lbu $5,29($29)
  404074:	1d 00 05 1d 
  404078:	22 00 00 00 	lbu $6,30($29)
  40407c:	1e 00 06 1d 
  404080:	30 00 00 00 	sb $11,20($29)
  404084:	14 00 0b 1d 
  404088:	22 00 00 00 	lbu $11,27($29)
  40408c:	1b 00 0b 1d 
  404090:	30 00 00 00 	sb $11,25($29)
  404094:	19 00 0b 1d 
  404098:	22 00 00 00 	lbu $11,26($29)
  40409c:	1a 00 0b 1d 
  4040a0:	30 00 00 00 	sb $11,24($29)
  4040a4:	18 00 0b 1d 
  4040a8:	22 00 00 00 	lbu $11,31($29)
  4040ac:	1f 00 0b 1d 
  4040b0:	43 00 00 00 	addiu $16,$29,16
  4040b4:	10 00 10 1d 
  4040b8:	42 00 00 00 	addu $4,$0,$16
  4040bc:	00 04 10 00 
  4040c0:	30 00 00 00 	sb $2,23($29)
  4040c4:	17 00 02 1d 
  4040c8:	30 00 00 00 	sb $3,22($29)
  4040cc:	16 00 03 1d 
  4040d0:	30 00 00 00 	sb $9,21($29)
  4040d4:	15 00 09 1d 
  4040d8:	30 00 00 00 	sb $5,28($29)
  4040dc:	1c 00 05 1d 
  4040e0:	30 00 00 00 	sb $6,29($29)
  4040e4:	1d 00 06 1d 
  4040e8:	30 00 00 00 	sb $10,27($29)
  4040ec:	1b 00 0a 1d 
  4040f0:	30 00 00 00 	sb $8,26($29)
  4040f4:	1a 00 08 1d 
  4040f8:	30 00 00 00 	sb $7,31($29)
  4040fc:	1f 00 07 1d 
  404100:	30 00 00 00 	sb $11,30($29)
  404104:	1e 00 0b 1d 
  404108:	02 00 00 00 	jal 4008a0 <InvSubBytes>
  40410c:	28 02 10 00 
  404110:	42 00 00 00 	addu $4,$0,$16
  404114:	00 04 10 00 
  404118:	43 00 00 00 	addiu $5,$17,208
  40411c:	d0 00 05 11 
  404120:	02 00 00 00 	jal 4001f0 <AddRoundKey>
  404124:	7c 00 10 00 
  404128:	42 00 00 00 	addu $4,$0,$16
  40412c:	00 04 10 00 
  404130:	02 00 00 00 	jal 401a40 <InvMixColumns>
  404134:	90 06 10 00 
  404138:	22 00 00 00 	lbu $11,23($29)
  40413c:	17 00 0b 1d 
  404140:	22 00 00 00 	lbu $9,20($29)
  404144:	14 00 09 1d 
  404148:	22 00 00 00 	lbu $10,25($29)
  40414c:	19 00 0a 1d 
  404150:	22 00 00 00 	lbu $8,24($29)
  404154:	18 00 08 1d 
  404158:	22 00 00 00 	lbu $2,22($29)
  40415c:	16 00 02 1d 
  404160:	22 00 00 00 	lbu $3,21($29)
  404164:	15 00 03 1d 
  404168:	22 00 00 00 	lbu $7,28($29)
  40416c:	1c 00 07 1d 
  404170:	22 00 00 00 	lbu $5,29($29)
  404174:	1d 00 05 1d 
  404178:	22 00 00 00 	lbu $6,30($29)
  40417c:	1e 00 06 1d 
  404180:	30 00 00 00 	sb $11,20($29)
  404184:	14 00 0b 1d 
  404188:	22 00 00 00 	lbu $11,27($29)
  40418c:	1b 00 0b 1d 
  404190:	30 00 00 00 	sb $11,25($29)
  404194:	19 00 0b 1d 
  404198:	22 00 00 00 	lbu $11,26($29)
  40419c:	1a 00 0b 1d 
  4041a0:	30 00 00 00 	sb $11,24($29)
  4041a4:	18 00 0b 1d 
  4041a8:	22 00 00 00 	lbu $11,31($29)
  4041ac:	1f 00 0b 1d 
  4041b0:	42 00 00 00 	addu $4,$0,$16
  4041b4:	00 04 10 00 
  4041b8:	30 00 00 00 	sb $2,23($29)
  4041bc:	17 00 02 1d 
  4041c0:	30 00 00 00 	sb $3,22($29)
  4041c4:	16 00 03 1d 
  4041c8:	30 00 00 00 	sb $9,21($29)
  4041cc:	15 00 09 1d 
  4041d0:	30 00 00 00 	sb $5,28($29)
  4041d4:	1c 00 05 1d 
  4041d8:	30 00 00 00 	sb $6,29($29)
  4041dc:	1d 00 06 1d 
  4041e0:	30 00 00 00 	sb $10,27($29)
  4041e4:	1b 00 0a 1d 
  4041e8:	30 00 00 00 	sb $8,26($29)
  4041ec:	1a 00 08 1d 
  4041f0:	30 00 00 00 	sb $7,31($29)
  4041f4:	1f 00 07 1d 
  4041f8:	30 00 00 00 	sb $11,30($29)
  4041fc:	1e 00 0b 1d 
  404200:	02 00 00 00 	jal 4008a0 <InvSubBytes>
  404204:	28 02 10 00 
  404208:	42 00 00 00 	addu $4,$0,$16
  40420c:	00 04 10 00 
  404210:	43 00 00 00 	addiu $5,$17,192
  404214:	c0 00 05 11 
  404218:	02 00 00 00 	jal 4001f0 <AddRoundKey>
  40421c:	7c 00 10 00 
  404220:	42 00 00 00 	addu $4,$0,$16
  404224:	00 04 10 00 
  404228:	02 00 00 00 	jal 401a40 <InvMixColumns>
  40422c:	90 06 10 00 
  404230:	01 00 00 00 	j 404250 <aes_decrypt+0x388>
  404234:	94 10 10 00 
  404238:	43 00 00 00 	addiu $4,$29,16
  40423c:	10 00 04 1d 
  404240:	43 00 00 00 	addiu $5,$17,192
  404244:	c0 00 05 11 
  404248:	02 00 00 00 	jal 4001f0 <AddRoundKey>
  40424c:	7c 00 10 00 
  404250:	22 00 00 00 	lbu $11,23($29)
  404254:	17 00 0b 1d 
  404258:	22 00 00 00 	lbu $9,20($29)
  40425c:	14 00 09 1d 
  404260:	22 00 00 00 	lbu $10,25($29)
  404264:	19 00 0a 1d 
  404268:	22 00 00 00 	lbu $8,24($29)
  40426c:	18 00 08 1d 
  404270:	22 00 00 00 	lbu $2,22($29)
  404274:	16 00 02 1d 
  404278:	22 00 00 00 	lbu $3,21($29)
  40427c:	15 00 03 1d 
  404280:	22 00 00 00 	lbu $7,28($29)
  404284:	1c 00 07 1d 
  404288:	22 00 00 00 	lbu $5,29($29)
  40428c:	1d 00 05 1d 
  404290:	22 00 00 00 	lbu $6,30($29)
  404294:	1e 00 06 1d 
  404298:	30 00 00 00 	sb $11,20($29)
  40429c:	14 00 0b 1d 
  4042a0:	22 00 00 00 	lbu $11,27($29)
  4042a4:	1b 00 0b 1d 
  4042a8:	30 00 00 00 	sb $11,25($29)
  4042ac:	19 00 0b 1d 
  4042b0:	22 00 00 00 	lbu $11,26($29)
  4042b4:	1a 00 0b 1d 
  4042b8:	30 00 00 00 	sb $11,24($29)
  4042bc:	18 00 0b 1d 
  4042c0:	22 00 00 00 	lbu $11,31($29)
  4042c4:	1f 00 0b 1d 
  4042c8:	43 00 00 00 	addiu $16,$29,16
  4042cc:	10 00 10 1d 
  4042d0:	42 00 00 00 	addu $4,$0,$16
  4042d4:	00 04 10 00 
  4042d8:	30 00 00 00 	sb $2,23($29)
  4042dc:	17 00 02 1d 
  4042e0:	30 00 00 00 	sb $3,22($29)
  4042e4:	16 00 03 1d 
  4042e8:	30 00 00 00 	sb $9,21($29)
  4042ec:	15 00 09 1d 
  4042f0:	30 00 00 00 	sb $5,28($29)
  4042f4:	1c 00 05 1d 
  4042f8:	30 00 00 00 	sb $6,29($29)
  4042fc:	1d 00 06 1d 
  404300:	30 00 00 00 	sb $10,27($29)
  404304:	1b 00 0a 1d 
  404308:	30 00 00 00 	sb $8,26($29)
  40430c:	1a 00 08 1d 
  404310:	30 00 00 00 	sb $7,31($29)
  404314:	1f 00 07 1d 
  404318:	30 00 00 00 	sb $11,30($29)
  40431c:	1e 00 0b 1d 
  404320:	02 00 00 00 	jal 4008a0 <InvSubBytes>
  404324:	28 02 10 00 
  404328:	42 00 00 00 	addu $4,$0,$16
  40432c:	00 04 10 00 
  404330:	43 00 00 00 	addiu $5,$17,176
  404334:	b0 00 05 11 
  404338:	02 00 00 00 	jal 4001f0 <AddRoundKey>
  40433c:	7c 00 10 00 
  404340:	42 00 00 00 	addu $4,$0,$16
  404344:	00 04 10 00 
  404348:	02 00 00 00 	jal 401a40 <InvMixColumns>
  40434c:	90 06 10 00 
  404350:	22 00 00 00 	lbu $11,23($29)
  404354:	17 00 0b 1d 
  404358:	22 00 00 00 	lbu $9,20($29)
  40435c:	14 00 09 1d 
  404360:	22 00 00 00 	lbu $10,25($29)
  404364:	19 00 0a 1d 
  404368:	22 00 00 00 	lbu $8,24($29)
  40436c:	18 00 08 1d 
  404370:	22 00 00 00 	lbu $2,22($29)
  404374:	16 00 02 1d 
  404378:	22 00 00 00 	lbu $3,21($29)
  40437c:	15 00 03 1d 
  404380:	22 00 00 00 	lbu $7,28($29)
  404384:	1c 00 07 1d 
  404388:	22 00 00 00 	lbu $5,29($29)
  40438c:	1d 00 05 1d 
  404390:	22 00 00 00 	lbu $6,30($29)
  404394:	1e 00 06 1d 
  404398:	30 00 00 00 	sb $11,20($29)
  40439c:	14 00 0b 1d 
  4043a0:	22 00 00 00 	lbu $11,27($29)
  4043a4:	1b 00 0b 1d 
  4043a8:	30 00 00 00 	sb $11,25($29)
  4043ac:	19 00 0b 1d 
  4043b0:	22 00 00 00 	lbu $11,26($29)
  4043b4:	1a 00 0b 1d 
  4043b8:	30 00 00 00 	sb $11,24($29)
  4043bc:	18 00 0b 1d 
  4043c0:	22 00 00 00 	lbu $11,31($29)
  4043c4:	1f 00 0b 1d 
  4043c8:	42 00 00 00 	addu $4,$0,$16
  4043cc:	00 04 10 00 
  4043d0:	30 00 00 00 	sb $2,23($29)
  4043d4:	17 00 02 1d 
  4043d8:	30 00 00 00 	sb $3,22($29)
  4043dc:	16 00 03 1d 
  4043e0:	30 00 00 00 	sb $9,21($29)
  4043e4:	15 00 09 1d 
  4043e8:	30 00 00 00 	sb $5,28($29)
  4043ec:	1c 00 05 1d 
  4043f0:	30 00 00 00 	sb $6,29($29)
  4043f4:	1d 00 06 1d 
  4043f8:	30 00 00 00 	sb $10,27($29)
  4043fc:	1b 00 0a 1d 
  404400:	30 00 00 00 	sb $8,26($29)
  404404:	1a 00 08 1d 
  404408:	30 00 00 00 	sb $7,31($29)
  40440c:	1f 00 07 1d 
  404410:	30 00 00 00 	sb $11,30($29)
  404414:	1e 00 0b 1d 
  404418:	02 00 00 00 	jal 4008a0 <InvSubBytes>
  40441c:	28 02 10 00 
  404420:	42 00 00 00 	addu $4,$0,$16
  404424:	00 04 10 00 
  404428:	43 00 00 00 	addiu $5,$17,160
  40442c:	a0 00 05 11 
  404430:	02 00 00 00 	jal 4001f0 <AddRoundKey>
  404434:	7c 00 10 00 
  404438:	42 00 00 00 	addu $4,$0,$16
  40443c:	00 04 10 00 
  404440:	02 00 00 00 	jal 401a40 <InvMixColumns>
  404444:	90 06 10 00 
  404448:	01 00 00 00 	j 404468 <aes_decrypt+0x5a0>
  40444c:	1a 11 10 00 
  404450:	43 00 00 00 	addiu $4,$29,16
  404454:	10 00 04 1d 
  404458:	43 00 00 00 	addiu $5,$17,160
  40445c:	a0 00 05 11 
  404460:	02 00 00 00 	jal 4001f0 <AddRoundKey>
  404464:	7c 00 10 00 
  404468:	22 00 00 00 	lbu $11,23($29)
  40446c:	17 00 0b 1d 
  404470:	22 00 00 00 	lbu $9,20($29)
  404474:	14 00 09 1d 
  404478:	22 00 00 00 	lbu $10,25($29)
  40447c:	19 00 0a 1d 
  404480:	22 00 00 00 	lbu $8,24($29)
  404484:	18 00 08 1d 
  404488:	22 00 00 00 	lbu $2,22($29)
  40448c:	16 00 02 1d 
  404490:	22 00 00 00 	lbu $3,21($29)
  404494:	15 00 03 1d 
  404498:	22 00 00 00 	lbu $7,28($29)
  40449c:	1c 00 07 1d 
  4044a0:	22 00 00 00 	lbu $5,29($29)
  4044a4:	1d 00 05 1d 
  4044a8:	22 00 00 00 	lbu $6,30($29)
  4044ac:	1e 00 06 1d 
  4044b0:	30 00 00 00 	sb $11,20($29)
  4044b4:	14 00 0b 1d 
  4044b8:	22 00 00 00 	lbu $11,27($29)
  4044bc:	1b 00 0b 1d 
  4044c0:	30 00 00 00 	sb $11,25($29)
  4044c4:	19 00 0b 1d 
  4044c8:	22 00 00 00 	lbu $11,26($29)
  4044cc:	1a 00 0b 1d 
  4044d0:	30 00 00 00 	sb $11,24($29)
  4044d4:	18 00 0b 1d 
  4044d8:	22 00 00 00 	lbu $11,31($29)
  4044dc:	1f 00 0b 1d 
  4044e0:	43 00 00 00 	addiu $16,$29,16
  4044e4:	10 00 10 1d 
  4044e8:	42 00 00 00 	addu $4,$0,$16
  4044ec:	00 04 10 00 
  4044f0:	30 00 00 00 	sb $2,23($29)
  4044f4:	17 00 02 1d 
  4044f8:	30 00 00 00 	sb $3,22($29)
  4044fc:	16 00 03 1d 
  404500:	30 00 00 00 	sb $9,21($29)
  404504:	15 00 09 1d 
  404508:	30 00 00 00 	sb $5,28($29)
  40450c:	1c 00 05 1d 
  404510:	30 00 00 00 	sb $6,29($29)
  404514:	1d 00 06 1d 
  404518:	30 00 00 00 	sb $10,27($29)
  40451c:	1b 00 0a 1d 
  404520:	30 00 00 00 	sb $8,26($29)
  404524:	1a 00 08 1d 
  404528:	30 00 00 00 	sb $7,31($29)
  40452c:	1f 00 07 1d 
  404530:	30 00 00 00 	sb $11,30($29)
  404534:	1e 00 0b 1d 
  404538:	02 00 00 00 	jal 4008a0 <InvSubBytes>
  40453c:	28 02 10 00 
  404540:	42 00 00 00 	addu $4,$0,$16
  404544:	00 04 10 00 
  404548:	43 00 00 00 	addiu $5,$17,144
  40454c:	90 00 05 11 
  404550:	02 00 00 00 	jal 4001f0 <AddRoundKey>
  404554:	7c 00 10 00 
  404558:	42 00 00 00 	addu $4,$0,$16
  40455c:	00 04 10 00 
  404560:	02 00 00 00 	jal 401a40 <InvMixColumns>
  404564:	90 06 10 00 
  404568:	22 00 00 00 	lbu $11,23($29)
  40456c:	17 00 0b 1d 
  404570:	22 00 00 00 	lbu $9,20($29)
  404574:	14 00 09 1d 
  404578:	22 00 00 00 	lbu $10,25($29)
  40457c:	19 00 0a 1d 
  404580:	22 00 00 00 	lbu $8,24($29)
  404584:	18 00 08 1d 
  404588:	22 00 00 00 	lbu $2,22($29)
  40458c:	16 00 02 1d 
  404590:	22 00 00 00 	lbu $3,21($29)
  404594:	15 00 03 1d 
  404598:	22 00 00 00 	lbu $7,28($29)
  40459c:	1c 00 07 1d 
  4045a0:	22 00 00 00 	lbu $5,29($29)
  4045a4:	1d 00 05 1d 
  4045a8:	22 00 00 00 	lbu $6,30($29)
  4045ac:	1e 00 06 1d 
  4045b0:	30 00 00 00 	sb $11,20($29)
  4045b4:	14 00 0b 1d 
  4045b8:	22 00 00 00 	lbu $11,27($29)
  4045bc:	1b 00 0b 1d 
  4045c0:	30 00 00 00 	sb $11,25($29)
  4045c4:	19 00 0b 1d 
  4045c8:	22 00 00 00 	lbu $11,26($29)
  4045cc:	1a 00 0b 1d 
  4045d0:	30 00 00 00 	sb $11,24($29)
  4045d4:	18 00 0b 1d 
  4045d8:	22 00 00 00 	lbu $11,31($29)
  4045dc:	1f 00 0b 1d 
  4045e0:	42 00 00 00 	addu $4,$0,$16
  4045e4:	00 04 10 00 
  4045e8:	30 00 00 00 	sb $2,23($29)
  4045ec:	17 00 02 1d 
  4045f0:	30 00 00 00 	sb $3,22($29)
  4045f4:	16 00 03 1d 
  4045f8:	30 00 00 00 	sb $9,21($29)
  4045fc:	15 00 09 1d 
  404600:	30 00 00 00 	sb $5,28($29)
  404604:	1c 00 05 1d 
  404608:	30 00 00 00 	sb $6,29($29)
  40460c:	1d 00 06 1d 
  404610:	30 00 00 00 	sb $10,27($29)
  404614:	1b 00 0a 1d 
  404618:	30 00 00 00 	sb $8,26($29)
  40461c:	1a 00 08 1d 
  404620:	30 00 00 00 	sb $7,31($29)
  404624:	1f 00 07 1d 
  404628:	30 00 00 00 	sb $11,30($29)
  40462c:	1e 00 0b 1d 
  404630:	02 00 00 00 	jal 4008a0 <InvSubBytes>
  404634:	28 02 10 00 
  404638:	42 00 00 00 	addu $4,$0,$16
  40463c:	00 04 10 00 
  404640:	43 00 00 00 	addiu $5,$17,128
  404644:	80 00 05 11 
  404648:	02 00 00 00 	jal 4001f0 <AddRoundKey>
  40464c:	7c 00 10 00 
  404650:	42 00 00 00 	addu $4,$0,$16
  404654:	00 04 10 00 
  404658:	02 00 00 00 	jal 401a40 <InvMixColumns>
  40465c:	90 06 10 00 
  404660:	22 00 00 00 	lbu $11,23($29)
  404664:	17 00 0b 1d 
  404668:	22 00 00 00 	lbu $9,20($29)
  40466c:	14 00 09 1d 
  404670:	22 00 00 00 	lbu $10,25($29)
  404674:	19 00 0a 1d 
  404678:	22 00 00 00 	lbu $8,24($29)
  40467c:	18 00 08 1d 
  404680:	22 00 00 00 	lbu $2,22($29)
  404684:	16 00 02 1d 
  404688:	22 00 00 00 	lbu $3,21($29)
  40468c:	15 00 03 1d 
  404690:	22 00 00 00 	lbu $7,28($29)
  404694:	1c 00 07 1d 
  404698:	22 00 00 00 	lbu $5,29($29)
  40469c:	1d 00 05 1d 
  4046a0:	22 00 00 00 	lbu $6,30($29)
  4046a4:	1e 00 06 1d 
  4046a8:	30 00 00 00 	sb $11,20($29)
  4046ac:	14 00 0b 1d 
  4046b0:	22 00 00 00 	lbu $11,27($29)
  4046b4:	1b 00 0b 1d 
  4046b8:	30 00 00 00 	sb $11,25($29)
  4046bc:	19 00 0b 1d 
  4046c0:	22 00 00 00 	lbu $11,26($29)
  4046c4:	1a 00 0b 1d 
  4046c8:	30 00 00 00 	sb $11,24($29)
  4046cc:	18 00 0b 1d 
  4046d0:	22 00 00 00 	lbu $11,31($29)
  4046d4:	1f 00 0b 1d 
  4046d8:	42 00 00 00 	addu $4,$0,$16
  4046dc:	00 04 10 00 
  4046e0:	30 00 00 00 	sb $2,23($29)
  4046e4:	17 00 02 1d 
  4046e8:	30 00 00 00 	sb $3,22($29)
  4046ec:	16 00 03 1d 
  4046f0:	30 00 00 00 	sb $9,21($29)
  4046f4:	15 00 09 1d 
  4046f8:	30 00 00 00 	sb $5,28($29)
  4046fc:	1c 00 05 1d 
  404700:	30 00 00 00 	sb $6,29($29)
  404704:	1d 00 06 1d 
  404708:	30 00 00 00 	sb $10,27($29)
  40470c:	1b 00 0a 1d 
  404710:	30 00 00 00 	sb $8,26($29)
  404714:	1a 00 08 1d 
  404718:	30 00 00 00 	sb $7,31($29)
  40471c:	1f 00 07 1d 
  404720:	30 00 00 00 	sb $11,30($29)
  404724:	1e 00 0b 1d 
  404728:	02 00 00 00 	jal 4008a0 <InvSubBytes>
  40472c:	28 02 10 00 
  404730:	42 00 00 00 	addu $4,$0,$16
  404734:	00 04 10 00 
  404738:	43 00 00 00 	addiu $5,$17,112
  40473c:	70 00 05 11 
  404740:	02 00 00 00 	jal 4001f0 <AddRoundKey>
  404744:	7c 00 10 00 
  404748:	42 00 00 00 	addu $4,$0,$16
  40474c:	00 04 10 00 
  404750:	02 00 00 00 	jal 401a40 <InvMixColumns>
  404754:	90 06 10 00 
  404758:	22 00 00 00 	lbu $11,23($29)
  40475c:	17 00 0b 1d 
  404760:	22 00 00 00 	lbu $9,20($29)
  404764:	14 00 09 1d 
  404768:	22 00 00 00 	lbu $10,25($29)
  40476c:	19 00 0a 1d 
  404770:	22 00 00 00 	lbu $8,24($29)
  404774:	18 00 08 1d 
  404778:	22 00 00 00 	lbu $2,22($29)
  40477c:	16 00 02 1d 
  404780:	22 00 00 00 	lbu $3,21($29)
  404784:	15 00 03 1d 
  404788:	22 00 00 00 	lbu $7,28($29)
  40478c:	1c 00 07 1d 
  404790:	22 00 00 00 	lbu $5,29($29)
  404794:	1d 00 05 1d 
  404798:	22 00 00 00 	lbu $6,30($29)
  40479c:	1e 00 06 1d 
  4047a0:	30 00 00 00 	sb $11,20($29)
  4047a4:	14 00 0b 1d 
  4047a8:	22 00 00 00 	lbu $11,27($29)
  4047ac:	1b 00 0b 1d 
  4047b0:	30 00 00 00 	sb $11,25($29)
  4047b4:	19 00 0b 1d 
  4047b8:	22 00 00 00 	lbu $11,26($29)
  4047bc:	1a 00 0b 1d 
  4047c0:	30 00 00 00 	sb $11,24($29)
  4047c4:	18 00 0b 1d 
  4047c8:	22 00 00 00 	lbu $11,31($29)
  4047cc:	1f 00 0b 1d 
  4047d0:	42 00 00 00 	addu $4,$0,$16
  4047d4:	00 04 10 00 
  4047d8:	30 00 00 00 	sb $2,23($29)
  4047dc:	17 00 02 1d 
  4047e0:	30 00 00 00 	sb $3,22($29)
  4047e4:	16 00 03 1d 
  4047e8:	30 00 00 00 	sb $9,21($29)
  4047ec:	15 00 09 1d 
  4047f0:	30 00 00 00 	sb $5,28($29)
  4047f4:	1c 00 05 1d 
  4047f8:	30 00 00 00 	sb $6,29($29)
  4047fc:	1d 00 06 1d 
  404800:	30 00 00 00 	sb $10,27($29)
  404804:	1b 00 0a 1d 
  404808:	30 00 00 00 	sb $8,26($29)
  40480c:	1a 00 08 1d 
  404810:	30 00 00 00 	sb $7,31($29)
  404814:	1f 00 07 1d 
  404818:	30 00 00 00 	sb $11,30($29)
  40481c:	1e 00 0b 1d 
  404820:	02 00 00 00 	jal 4008a0 <InvSubBytes>
  404824:	28 02 10 00 
  404828:	42 00 00 00 	addu $4,$0,$16
  40482c:	00 04 10 00 
  404830:	43 00 00 00 	addiu $5,$17,96
  404834:	60 00 05 11 
  404838:	02 00 00 00 	jal 4001f0 <AddRoundKey>
  40483c:	7c 00 10 00 
  404840:	42 00 00 00 	addu $4,$0,$16
  404844:	00 04 10 00 
  404848:	02 00 00 00 	jal 401a40 <InvMixColumns>
  40484c:	90 06 10 00 
  404850:	22 00 00 00 	lbu $11,23($29)
  404854:	17 00 0b 1d 
  404858:	22 00 00 00 	lbu $9,20($29)
  40485c:	14 00 09 1d 
  404860:	22 00 00 00 	lbu $10,25($29)
  404864:	19 00 0a 1d 
  404868:	22 00 00 00 	lbu $8,24($29)
  40486c:	18 00 08 1d 
  404870:	22 00 00 00 	lbu $2,22($29)
  404874:	16 00 02 1d 
  404878:	22 00 00 00 	lbu $3,21($29)
  40487c:	15 00 03 1d 
  404880:	22 00 00 00 	lbu $7,28($29)
  404884:	1c 00 07 1d 
  404888:	22 00 00 00 	lbu $5,29($29)
  40488c:	1d 00 05 1d 
  404890:	22 00 00 00 	lbu $6,30($29)
  404894:	1e 00 06 1d 
  404898:	30 00 00 00 	sb $11,20($29)
  40489c:	14 00 0b 1d 
  4048a0:	22 00 00 00 	lbu $11,27($29)
  4048a4:	1b 00 0b 1d 
  4048a8:	30 00 00 00 	sb $11,25($29)
  4048ac:	19 00 0b 1d 
  4048b0:	22 00 00 00 	lbu $11,26($29)
  4048b4:	1a 00 0b 1d 
  4048b8:	30 00 00 00 	sb $11,24($29)
  4048bc:	18 00 0b 1d 
  4048c0:	22 00 00 00 	lbu $11,31($29)
  4048c4:	1f 00 0b 1d 
  4048c8:	42 00 00 00 	addu $4,$0,$16
  4048cc:	00 04 10 00 
  4048d0:	30 00 00 00 	sb $2,23($29)
  4048d4:	17 00 02 1d 
  4048d8:	30 00 00 00 	sb $3,22($29)
  4048dc:	16 00 03 1d 
  4048e0:	30 00 00 00 	sb $9,21($29)
  4048e4:	15 00 09 1d 
  4048e8:	30 00 00 00 	sb $5,28($29)
  4048ec:	1c 00 05 1d 
  4048f0:	30 00 00 00 	sb $6,29($29)
  4048f4:	1d 00 06 1d 
  4048f8:	30 00 00 00 	sb $10,27($29)
  4048fc:	1b 00 0a 1d 
  404900:	30 00 00 00 	sb $8,26($29)
  404904:	1a 00 08 1d 
  404908:	30 00 00 00 	sb $7,31($29)
  40490c:	1f 00 07 1d 
  404910:	30 00 00 00 	sb $11,30($29)
  404914:	1e 00 0b 1d 
  404918:	02 00 00 00 	jal 4008a0 <InvSubBytes>
  40491c:	28 02 10 00 
  404920:	42 00 00 00 	addu $4,$0,$16
  404924:	00 04 10 00 
  404928:	43 00 00 00 	addiu $5,$17,80
  40492c:	50 00 05 11 
  404930:	02 00 00 00 	jal 4001f0 <AddRoundKey>
  404934:	7c 00 10 00 
  404938:	42 00 00 00 	addu $4,$0,$16
  40493c:	00 04 10 00 
  404940:	02 00 00 00 	jal 401a40 <InvMixColumns>
  404944:	90 06 10 00 
  404948:	22 00 00 00 	lbu $11,23($29)
  40494c:	17 00 0b 1d 
  404950:	22 00 00 00 	lbu $9,20($29)
  404954:	14 00 09 1d 
  404958:	22 00 00 00 	lbu $10,25($29)
  40495c:	19 00 0a 1d 
  404960:	22 00 00 00 	lbu $8,24($29)
  404964:	18 00 08 1d 
  404968:	22 00 00 00 	lbu $2,22($29)
  40496c:	16 00 02 1d 
  404970:	22 00 00 00 	lbu $3,21($29)
  404974:	15 00 03 1d 
  404978:	22 00 00 00 	lbu $7,28($29)
  40497c:	1c 00 07 1d 
  404980:	22 00 00 00 	lbu $5,29($29)
  404984:	1d 00 05 1d 
  404988:	22 00 00 00 	lbu $6,30($29)
  40498c:	1e 00 06 1d 
  404990:	30 00 00 00 	sb $11,20($29)
  404994:	14 00 0b 1d 
  404998:	22 00 00 00 	lbu $11,27($29)
  40499c:	1b 00 0b 1d 
  4049a0:	30 00 00 00 	sb $11,25($29)
  4049a4:	19 00 0b 1d 
  4049a8:	22 00 00 00 	lbu $11,26($29)
  4049ac:	1a 00 0b 1d 
  4049b0:	30 00 00 00 	sb $11,24($29)
  4049b4:	18 00 0b 1d 
  4049b8:	22 00 00 00 	lbu $11,31($29)
  4049bc:	1f 00 0b 1d 
  4049c0:	42 00 00 00 	addu $4,$0,$16
  4049c4:	00 04 10 00 
  4049c8:	30 00 00 00 	sb $2,23($29)
  4049cc:	17 00 02 1d 
  4049d0:	30 00 00 00 	sb $3,22($29)
  4049d4:	16 00 03 1d 
  4049d8:	30 00 00 00 	sb $9,21($29)
  4049dc:	15 00 09 1d 
  4049e0:	30 00 00 00 	sb $5,28($29)
  4049e4:	1c 00 05 1d 
  4049e8:	30 00 00 00 	sb $6,29($29)
  4049ec:	1d 00 06 1d 
  4049f0:	30 00 00 00 	sb $10,27($29)
  4049f4:	1b 00 0a 1d 
  4049f8:	30 00 00 00 	sb $8,26($29)
  4049fc:	1a 00 08 1d 
  404a00:	30 00 00 00 	sb $7,31($29)
  404a04:	1f 00 07 1d 
  404a08:	30 00 00 00 	sb $11,30($29)
  404a0c:	1e 00 0b 1d 
  404a10:	02 00 00 00 	jal 4008a0 <InvSubBytes>
  404a14:	28 02 10 00 
  404a18:	42 00 00 00 	addu $4,$0,$16
  404a1c:	00 04 10 00 
  404a20:	43 00 00 00 	addiu $5,$17,64
  404a24:	40 00 05 11 
  404a28:	02 00 00 00 	jal 4001f0 <AddRoundKey>
  404a2c:	7c 00 10 00 
  404a30:	42 00 00 00 	addu $4,$0,$16
  404a34:	00 04 10 00 
  404a38:	02 00 00 00 	jal 401a40 <InvMixColumns>
  404a3c:	90 06 10 00 
  404a40:	22 00 00 00 	lbu $11,23($29)
  404a44:	17 00 0b 1d 
  404a48:	22 00 00 00 	lbu $9,20($29)
  404a4c:	14 00 09 1d 
  404a50:	22 00 00 00 	lbu $10,25($29)
  404a54:	19 00 0a 1d 
  404a58:	22 00 00 00 	lbu $8,24($29)
  404a5c:	18 00 08 1d 
  404a60:	22 00 00 00 	lbu $2,22($29)
  404a64:	16 00 02 1d 
  404a68:	22 00 00 00 	lbu $3,21($29)
  404a6c:	15 00 03 1d 
  404a70:	22 00 00 00 	lbu $7,28($29)
  404a74:	1c 00 07 1d 
  404a78:	22 00 00 00 	lbu $5,29($29)
  404a7c:	1d 00 05 1d 
  404a80:	22 00 00 00 	lbu $6,30($29)
  404a84:	1e 00 06 1d 
  404a88:	30 00 00 00 	sb $11,20($29)
  404a8c:	14 00 0b 1d 
  404a90:	22 00 00 00 	lbu $11,27($29)
  404a94:	1b 00 0b 1d 
  404a98:	30 00 00 00 	sb $11,25($29)
  404a9c:	19 00 0b 1d 
  404aa0:	22 00 00 00 	lbu $11,26($29)
  404aa4:	1a 00 0b 1d 
  404aa8:	30 00 00 00 	sb $11,24($29)
  404aac:	18 00 0b 1d 
  404ab0:	22 00 00 00 	lbu $11,31($29)
  404ab4:	1f 00 0b 1d 
  404ab8:	42 00 00 00 	addu $4,$0,$16
  404abc:	00 04 10 00 
  404ac0:	30 00 00 00 	sb $2,23($29)
  404ac4:	17 00 02 1d 
  404ac8:	30 00 00 00 	sb $3,22($29)
  404acc:	16 00 03 1d 
  404ad0:	30 00 00 00 	sb $9,21($29)
  404ad4:	15 00 09 1d 
  404ad8:	30 00 00 00 	sb $5,28($29)
  404adc:	1c 00 05 1d 
  404ae0:	30 00 00 00 	sb $6,29($29)
  404ae4:	1d 00 06 1d 
  404ae8:	30 00 00 00 	sb $10,27($29)
  404aec:	1b 00 0a 1d 
  404af0:	30 00 00 00 	sb $8,26($29)
  404af4:	1a 00 08 1d 
  404af8:	30 00 00 00 	sb $7,31($29)
  404afc:	1f 00 07 1d 
  404b00:	30 00 00 00 	sb $11,30($29)
  404b04:	1e 00 0b 1d 
  404b08:	02 00 00 00 	jal 4008a0 <InvSubBytes>
  404b0c:	28 02 10 00 
  404b10:	42 00 00 00 	addu $4,$0,$16
  404b14:	00 04 10 00 
  404b18:	43 00 00 00 	addiu $5,$17,48
  404b1c:	30 00 05 11 
  404b20:	02 00 00 00 	jal 4001f0 <AddRoundKey>
  404b24:	7c 00 10 00 
  404b28:	42 00 00 00 	addu $4,$0,$16
  404b2c:	00 04 10 00 
  404b30:	02 00 00 00 	jal 401a40 <InvMixColumns>
  404b34:	90 06 10 00 
  404b38:	22 00 00 00 	lbu $11,23($29)
  404b3c:	17 00 0b 1d 
  404b40:	22 00 00 00 	lbu $9,20($29)
  404b44:	14 00 09 1d 
  404b48:	22 00 00 00 	lbu $10,25($29)
  404b4c:	19 00 0a 1d 
  404b50:	22 00 00 00 	lbu $8,24($29)
  404b54:	18 00 08 1d 
  404b58:	22 00 00 00 	lbu $2,22($29)
  404b5c:	16 00 02 1d 
  404b60:	22 00 00 00 	lbu $3,21($29)
  404b64:	15 00 03 1d 
  404b68:	22 00 00 00 	lbu $7,28($29)
  404b6c:	1c 00 07 1d 
  404b70:	22 00 00 00 	lbu $5,29($29)
  404b74:	1d 00 05 1d 
  404b78:	22 00 00 00 	lbu $6,30($29)
  404b7c:	1e 00 06 1d 
  404b80:	30 00 00 00 	sb $11,20($29)
  404b84:	14 00 0b 1d 
  404b88:	22 00 00 00 	lbu $11,27($29)
  404b8c:	1b 00 0b 1d 
  404b90:	30 00 00 00 	sb $11,25($29)
  404b94:	19 00 0b 1d 
  404b98:	22 00 00 00 	lbu $11,26($29)
  404b9c:	1a 00 0b 1d 
  404ba0:	30 00 00 00 	sb $11,24($29)
  404ba4:	18 00 0b 1d 
  404ba8:	22 00 00 00 	lbu $11,31($29)
  404bac:	1f 00 0b 1d 
  404bb0:	42 00 00 00 	addu $4,$0,$16
  404bb4:	00 04 10 00 
  404bb8:	30 00 00 00 	sb $2,23($29)
  404bbc:	17 00 02 1d 
  404bc0:	30 00 00 00 	sb $3,22($29)
  404bc4:	16 00 03 1d 
  404bc8:	30 00 00 00 	sb $9,21($29)
  404bcc:	15 00 09 1d 
  404bd0:	30 00 00 00 	sb $5,28($29)
  404bd4:	1c 00 05 1d 
  404bd8:	30 00 00 00 	sb $6,29($29)
  404bdc:	1d 00 06 1d 
  404be0:	30 00 00 00 	sb $10,27($29)
  404be4:	1b 00 0a 1d 
  404be8:	30 00 00 00 	sb $8,26($29)
  404bec:	1a 00 08 1d 
  404bf0:	30 00 00 00 	sb $7,31($29)
  404bf4:	1f 00 07 1d 
  404bf8:	30 00 00 00 	sb $11,30($29)
  404bfc:	1e 00 0b 1d 
  404c00:	02 00 00 00 	jal 4008a0 <InvSubBytes>
  404c04:	28 02 10 00 
  404c08:	42 00 00 00 	addu $4,$0,$16
  404c0c:	00 04 10 00 
  404c10:	43 00 00 00 	addiu $5,$17,32
  404c14:	20 00 05 11 
  404c18:	02 00 00 00 	jal 4001f0 <AddRoundKey>
  404c1c:	7c 00 10 00 
  404c20:	42 00 00 00 	addu $4,$0,$16
  404c24:	00 04 10 00 
  404c28:	02 00 00 00 	jal 401a40 <InvMixColumns>
  404c2c:	90 06 10 00 
  404c30:	22 00 00 00 	lbu $11,23($29)
  404c34:	17 00 0b 1d 
  404c38:	22 00 00 00 	lbu $9,20($29)
  404c3c:	14 00 09 1d 
  404c40:	22 00 00 00 	lbu $10,25($29)
  404c44:	19 00 0a 1d 
  404c48:	22 00 00 00 	lbu $8,24($29)
  404c4c:	18 00 08 1d 
  404c50:	22 00 00 00 	lbu $2,22($29)
  404c54:	16 00 02 1d 
  404c58:	22 00 00 00 	lbu $3,21($29)
  404c5c:	15 00 03 1d 
  404c60:	22 00 00 00 	lbu $7,28($29)
  404c64:	1c 00 07 1d 
  404c68:	22 00 00 00 	lbu $5,29($29)
  404c6c:	1d 00 05 1d 
  404c70:	22 00 00 00 	lbu $6,30($29)
  404c74:	1e 00 06 1d 
  404c78:	30 00 00 00 	sb $11,20($29)
  404c7c:	14 00 0b 1d 
  404c80:	22 00 00 00 	lbu $11,27($29)
  404c84:	1b 00 0b 1d 
  404c88:	30 00 00 00 	sb $11,25($29)
  404c8c:	19 00 0b 1d 
  404c90:	22 00 00 00 	lbu $11,26($29)
  404c94:	1a 00 0b 1d 
  404c98:	30 00 00 00 	sb $11,24($29)
  404c9c:	18 00 0b 1d 
  404ca0:	22 00 00 00 	lbu $11,31($29)
  404ca4:	1f 00 0b 1d 
  404ca8:	42 00 00 00 	addu $4,$0,$16
  404cac:	00 04 10 00 
  404cb0:	30 00 00 00 	sb $2,23($29)
  404cb4:	17 00 02 1d 
  404cb8:	30 00 00 00 	sb $3,22($29)
  404cbc:	16 00 03 1d 
  404cc0:	30 00 00 00 	sb $9,21($29)
  404cc4:	15 00 09 1d 
  404cc8:	30 00 00 00 	sb $5,28($29)
  404ccc:	1c 00 05 1d 
  404cd0:	30 00 00 00 	sb $6,29($29)
  404cd4:	1d 00 06 1d 
  404cd8:	30 00 00 00 	sb $10,27($29)
  404cdc:	1b 00 0a 1d 
  404ce0:	30 00 00 00 	sb $8,26($29)
  404ce4:	1a 00 08 1d 
  404ce8:	30 00 00 00 	sb $7,31($29)
  404cec:	1f 00 07 1d 
  404cf0:	30 00 00 00 	sb $11,30($29)
  404cf4:	1e 00 0b 1d 
  404cf8:	02 00 00 00 	jal 4008a0 <InvSubBytes>
  404cfc:	28 02 10 00 
  404d00:	42 00 00 00 	addu $4,$0,$16
  404d04:	00 04 10 00 
  404d08:	43 00 00 00 	addiu $5,$17,16
  404d0c:	10 00 05 11 
  404d10:	02 00 00 00 	jal 4001f0 <AddRoundKey>
  404d14:	7c 00 10 00 
  404d18:	42 00 00 00 	addu $4,$0,$16
  404d1c:	00 04 10 00 
  404d20:	02 00 00 00 	jal 401a40 <InvMixColumns>
  404d24:	90 06 10 00 
  404d28:	22 00 00 00 	lbu $11,23($29)
  404d2c:	17 00 0b 1d 
  404d30:	22 00 00 00 	lbu $9,20($29)
  404d34:	14 00 09 1d 
  404d38:	22 00 00 00 	lbu $10,25($29)
  404d3c:	19 00 0a 1d 
  404d40:	22 00 00 00 	lbu $8,24($29)
  404d44:	18 00 08 1d 
  404d48:	22 00 00 00 	lbu $2,22($29)
  404d4c:	16 00 02 1d 
  404d50:	22 00 00 00 	lbu $3,21($29)
  404d54:	15 00 03 1d 
  404d58:	22 00 00 00 	lbu $7,28($29)
  404d5c:	1c 00 07 1d 
  404d60:	22 00 00 00 	lbu $5,29($29)
  404d64:	1d 00 05 1d 
  404d68:	22 00 00 00 	lbu $6,30($29)
  404d6c:	1e 00 06 1d 
  404d70:	30 00 00 00 	sb $11,20($29)
  404d74:	14 00 0b 1d 
  404d78:	22 00 00 00 	lbu $11,27($29)
  404d7c:	1b 00 0b 1d 
  404d80:	30 00 00 00 	sb $11,25($29)
  404d84:	19 00 0b 1d 
  404d88:	22 00 00 00 	lbu $11,26($29)
  404d8c:	1a 00 0b 1d 
  404d90:	30 00 00 00 	sb $11,24($29)
  404d94:	18 00 0b 1d 
  404d98:	22 00 00 00 	lbu $11,31($29)
  404d9c:	1f 00 0b 1d 
  404da0:	42 00 00 00 	addu $4,$0,$16
  404da4:	00 04 10 00 
  404da8:	30 00 00 00 	sb $2,23($29)
  404dac:	17 00 02 1d 
  404db0:	30 00 00 00 	sb $3,22($29)
  404db4:	16 00 03 1d 
  404db8:	30 00 00 00 	sb $9,21($29)
  404dbc:	15 00 09 1d 
  404dc0:	30 00 00 00 	sb $5,28($29)
  404dc4:	1c 00 05 1d 
  404dc8:	30 00 00 00 	sb $6,29($29)
  404dcc:	1d 00 06 1d 
  404dd0:	30 00 00 00 	sb $10,27($29)
  404dd4:	1b 00 0a 1d 
  404dd8:	30 00 00 00 	sb $8,26($29)
  404ddc:	1a 00 08 1d 
  404de0:	30 00 00 00 	sb $7,31($29)
  404de4:	1f 00 07 1d 
  404de8:	30 00 00 00 	sb $11,30($29)
  404dec:	1e 00 0b 1d 
  404df0:	02 00 00 00 	jal 4008a0 <InvSubBytes>
  404df4:	28 02 10 00 
  404df8:	42 00 00 00 	addu $4,$0,$16
  404dfc:	00 04 10 00 
  404e00:	42 00 00 00 	addu $5,$0,$17
  404e04:	00 05 11 00 
  404e08:	02 00 00 00 	jal 4001f0 <AddRoundKey>
  404e0c:	7c 00 10 00 
  404e10:	22 00 00 00 	lbu $2,16($29)
  404e14:	10 00 02 1d 
  404e18:	30 00 00 00 	sb $2,0($18)
  404e1c:	00 00 02 12 
  404e20:	22 00 00 00 	lbu $2,20($29)
  404e24:	14 00 02 1d 
  404e28:	30 00 00 00 	sb $2,1($18)
  404e2c:	01 00 02 12 
  404e30:	22 00 00 00 	lbu $2,24($29)
  404e34:	18 00 02 1d 
  404e38:	30 00 00 00 	sb $2,2($18)
  404e3c:	02 00 02 12 
  404e40:	22 00 00 00 	lbu $2,28($29)
  404e44:	1c 00 02 1d 
  404e48:	30 00 00 00 	sb $2,3($18)
  404e4c:	03 00 02 12 
  404e50:	22 00 00 00 	lbu $2,17($29)
  404e54:	11 00 02 1d 
  404e58:	30 00 00 00 	sb $2,4($18)
  404e5c:	04 00 02 12 
  404e60:	22 00 00 00 	lbu $2,21($29)
  404e64:	15 00 02 1d 
  404e68:	30 00 00 00 	sb $2,5($18)
  404e6c:	05 00 02 12 
  404e70:	22 00 00 00 	lbu $2,25($29)
  404e74:	19 00 02 1d 
  404e78:	30 00 00 00 	sb $2,6($18)
  404e7c:	06 00 02 12 
  404e80:	22 00 00 00 	lbu $2,29($29)
  404e84:	1d 00 02 1d 
  404e88:	30 00 00 00 	sb $2,7($18)
  404e8c:	07 00 02 12 
  404e90:	22 00 00 00 	lbu $2,18($29)
  404e94:	12 00 02 1d 
  404e98:	30 00 00 00 	sb $2,8($18)
  404e9c:	08 00 02 12 
  404ea0:	22 00 00 00 	lbu $2,22($29)
  404ea4:	16 00 02 1d 
  404ea8:	30 00 00 00 	sb $2,9($18)
  404eac:	09 00 02 12 
  404eb0:	22 00 00 00 	lbu $2,26($29)
  404eb4:	1a 00 02 1d 
  404eb8:	30 00 00 00 	sb $2,10($18)
  404ebc:	0a 00 02 12 
  404ec0:	22 00 00 00 	lbu $2,30($29)
  404ec4:	1e 00 02 1d 
  404ec8:	30 00 00 00 	sb $2,11($18)
  404ecc:	0b 00 02 12 
  404ed0:	22 00 00 00 	lbu $2,19($29)
  404ed4:	13 00 02 1d 
  404ed8:	30 00 00 00 	sb $2,12($18)
  404edc:	0c 00 02 12 
  404ee0:	22 00 00 00 	lbu $2,23($29)
  404ee4:	17 00 02 1d 
  404ee8:	30 00 00 00 	sb $2,13($18)
  404eec:	0d 00 02 12 
  404ef0:	22 00 00 00 	lbu $2,27($29)
  404ef4:	1b 00 02 1d 
  404ef8:	30 00 00 00 	sb $2,14($18)
  404efc:	0e 00 02 12 
  404f00:	22 00 00 00 	lbu $2,31($29)
  404f04:	1f 00 02 1d 
  404f08:	30 00 00 00 	sb $2,15($18)
  404f0c:	0f 00 02 12 
  404f10:	28 00 00 00 	lw $31,44($29)
  404f14:	2c 00 1f 1d 
  404f18:	28 00 00 00 	lw $18,40($29)
  404f1c:	28 00 12 1d 
  404f20:	28 00 00 00 	lw $17,36($29)
  404f24:	24 00 11 1d 
  404f28:	28 00 00 00 	lw $16,32($29)
  404f2c:	20 00 10 1d 
  404f30:	43 00 00 00 	addiu $29,$29,48
  404f34:	30 00 1d 1d 
  404f38:	03 00 00 00 	jr $31
  404f3c:	00 00 00 1f 

00404f40 <main>:
  404f40:	43 00 00 00 	addiu $29,$29,-584
  404f44:	b8 fd 1d 1d 
  404f48:	34 00 00 00 	sw $31,580($29)
  404f4c:	44 02 1f 1d 
  404f50:	34 00 00 00 	sw $16,576($29)
  404f54:	40 02 10 1d 
  404f58:	02 00 00 00 	jal 405208 <__main>
  404f5c:	82 14 10 00 
  404f60:	a2 00 00 00 	lui $5,4096
  404f64:	00 10 05 00 
  404f68:	43 00 00 00 	addiu $5,$5,572
  404f6c:	3c 02 05 05 
  404f70:	2c 00 00 00 	lwl $2,3($5)
  404f74:	03 00 02 05 
  404f78:	2d 00 00 00 	lwr $2,0($5)
  404f7c:	00 00 02 05 
  404f80:	2c 00 00 00 	lwl $3,7($5)
  404f84:	07 00 03 05 
  404f88:	2d 00 00 00 	lwr $3,4($5)
  404f8c:	04 00 03 05 
  404f90:	2c 00 00 00 	lwl $4,11($5)
  404f94:	0b 00 04 05 
  404f98:	2d 00 00 00 	lwr $4,8($5)
  404f9c:	08 00 04 05 
  404fa0:	39 00 00 00 	swl $2,547($29)
  404fa4:	23 02 02 1d 
  404fa8:	3a 00 00 00 	swr $2,544($29)
  404fac:	20 02 02 1d 
  404fb0:	39 00 00 00 	swl $3,551($29)
  404fb4:	27 02 03 1d 
  404fb8:	3a 00 00 00 	swr $3,548($29)
  404fbc:	24 02 03 1d 
  404fc0:	39 00 00 00 	swl $4,555($29)
  404fc4:	2b 02 04 1d 
  404fc8:	3a 00 00 00 	swr $4,552($29)
  404fcc:	28 02 04 1d 
  404fd0:	2c 00 00 00 	lwl $2,15($5)
  404fd4:	0f 00 02 05 
  404fd8:	2d 00 00 00 	lwr $2,12($5)
  404fdc:	0c 00 02 05 
  404fe0:	39 00 00 00 	swl $2,559($29)
  404fe4:	2f 02 02 1d 
  404fe8:	3a 00 00 00 	swr $2,556($29)
  404fec:	2c 02 02 1d 
  404ff0:	43 00 00 00 	addiu $4,$29,16
  404ff4:	10 00 04 1d 
  404ff8:	43 00 00 00 	addiu $16,$29,32
  404ffc:	20 00 10 1d 
  405000:	42 00 00 00 	addu $5,$0,$16
  405004:	00 05 10 00 
  405008:	43 00 00 00 	addiu $6,$0,128
  40500c:	80 00 06 00 
  405010:	02 00 00 00 	jal 402dd0 <KeyExpansion>
  405014:	74 0b 10 00 
  405018:	43 00 00 00 	addiu $4,$29,544
  40501c:	20 02 04 1d 
  405020:	43 00 00 00 	addiu $5,$29,560
  405024:	30 02 05 1d 
  405028:	42 00 00 00 	addu $6,$0,$16
  40502c:	00 06 10 00 
  405030:	43 00 00 00 	addiu $7,$0,128
  405034:	80 00 07 00 
  405038:	02 00 00 00 	jal 403388 <aes_encrypt>
  40503c:	e2 0c 10 00 
  405040:	28 00 00 00 	lw $31,580($29)
  405044:	44 02 1f 1d 
  405048:	28 00 00 00 	lw $16,576($29)
  40504c:	40 02 10 1d 
  405050:	43 00 00 00 	addiu $29,$29,584
  405054:	48 02 1d 1d 
  405058:	03 00 00 00 	jr $31
  40505c:	00 00 00 1f