004001f0 <AddRoundKey>:
  4001f0:	22 00 00 00 	lbu $3,3($5)
  4001f4:	03 00 03 05 
  4001f8:	43 00 00 00 	addiu $29,$29,-8
  4001fc:	f8 ff 1d 1d 
  400200:	30 00 00 00 	sb $3,0($29)
  400204:	00 00 03 1d 
  400208:	26 00 00 00 	lhu $2,2($5)
  40020c:	02 00 02 05 
  400210:	30 00 00 00 	sb $2,1($29)
  400214:	01 00 02 1d 
  400218:	28 00 00 00 	lw $2,0($5)
  40021c:	00 00 02 05 
  400220:	57 00 00 00 	srl $2,$2,0x8
  400224:	08 02 02 00 
  400228:	30 00 00 00 	sb $2,2($29)
  40022c:	02 00 02 1d 
  400230:	28 00 00 00 	lw $2,0($5)
  400234:	00 00 02 05 
  400238:	30 00 00 00 	sb $2,3($29)
  40023c:	03 00 02 1d 
  400240:	22 00 00 00 	lbu $2,0($4)
  400244:	00 00 02 04 
  400248:	52 00 00 00 	xor $2,$2,$3
  40024c:	00 02 03 02 
  400250:	30 00 00 00 	sb $2,0($4)
  400254:	00 00 02 04 
  400258:	22 00 00 00 	lbu $2,4($4)
  40025c:	04 00 02 04 
  400260:	22 00 00 00 	lbu $3,1($29)
  400264:	01 00 03 1d 
  400268:	52 00 00 00 	xor $2,$2,$3
  40026c:	00 02 03 02 
  400270:	30 00 00 00 	sb $2,4($4)
  400274:	04 00 02 04 
  400278:	22 00 00 00 	lbu $2,8($4)
  40027c:	08 00 02 04 
  400280:	22 00 00 00 	lbu $3,2($29)
  400284:	02 00 03 1d 
  400288:	52 00 00 00 	xor $2,$2,$3
  40028c:	00 02 03 02 
  400290:	30 00 00 00 	sb $2,8($4)
  400294:	08 00 02 04 
  400298:	22 00 00 00 	lbu $2,12($4)
  40029c:	0c 00 02 04 
  4002a0:	22 00 00 00 	lbu $3,3($29)
  4002a4:	03 00 03 1d 
  4002a8:	52 00 00 00 	xor $2,$2,$3
  4002ac:	00 02 03 02 
  4002b0:	30 00 00 00 	sb $2,12($4)
  4002b4:	0c 00 02 04 
  4002b8:	22 00 00 00 	lbu $3,7($5)
  4002bc:	07 00 03 05 
  4002c0:	30 00 00 00 	sb $3,0($29)
  4002c4:	00 00 03 1d 
  4002c8:	26 00 00 00 	lhu $2,6($5)
  4002cc:	06 00 02 05 
  4002d0:	30 00 00 00 	sb $2,1($29)
  4002d4:	01 00 02 1d 
  4002d8:	28 00 00 00 	lw $2,4($5)
  4002dc:	04 00 02 05 
  4002e0:	57 00 00 00 	srl $2,$2,0x8
  4002e4:	08 02 02 00 
  4002e8:	30 00 00 00 	sb $2,2($29)
  4002ec:	02 00 02 1d 
  4002f0:	28 00 00 00 	lw $2,4($5)
  4002f4:	04 00 02 05 
  4002f8:	30 00 00 00 	sb $2,3($29)
  4002fc:	03 00 02 1d 
  400300:	22 00 00 00 	lbu $2,1($4)
  400304:	01 00 02 04 
  400308:	52 00 00 00 	xor $2,$2,$3
  40030c:	00 02 03 02 
  400310:	30 00 00 00 	sb $2,1($4)
  400314:	01 00 02 04 
  400318:	22 00 00 00 	lbu $2,5($4)
  40031c:	05 00 02 04 
  400320:	22 00 00 00 	lbu $3,1($29)
  400324:	01 00 03 1d 
  400328:	52 00 00 00 	xor $2,$2,$3
  40032c:	00 02 03 02 
  400330:	30 00 00 00 	sb $2,5($4)
  400334:	05 00 02 04 
  400338:	22 00 00 00 	lbu $2,9($4)
  40033c:	09 00 02 04 
  400340:	22 00 00 00 	lbu $3,2($29)
  400344:	02 00 03 1d 
  400348:	52 00 00 00 	xor $2,$2,$3
  40034c:	00 02 03 02 
  400350:	30 00 00 00 	sb $2,9($4)
  400354:	09 00 02 04 
  400358:	22 00 00 00 	lbu $2,13($4)
  40035c:	0d 00 02 04 
  400360:	22 00 00 00 	lbu $3,3($29)
  400364:	03 00 03 1d 
  400368:	52 00 00 00 	xor $2,$2,$3
  40036c:	00 02 03 02 
  400370:	30 00 00 00 	sb $2,13($4)
  400374:	0d 00 02 04 
  400378:	22 00 00 00 	lbu $3,11($5)
  40037c:	0b 00 03 05 
  400380:	30 00 00 00 	sb $3,0($29)
  400384:	00 00 03 1d 
  400388:	26 00 00 00 	lhu $2,10($5)
  40038c:	0a 00 02 05 
  400390:	30 00 00 00 	sb $2,1($29)
  400394:	01 00 02 1d 
  400398:	28 00 00 00 	lw $2,8($5)
  40039c:	08 00 02 05 
  4003a0:	57 00 00 00 	srl $2,$2,0x8
  4003a4:	08 02 02 00 
  4003a8:	30 00 00 00 	sb $2,2($29)
  4003ac:	02 00 02 1d 
  4003b0:	28 00 00 00 	lw $2,8($5)
  4003b4:	08 00 02 05 
  4003b8:	30 00 00 00 	sb $2,3($29)
  4003bc:	03 00 02 1d 
  4003c0:	22 00 00 00 	lbu $2,2($4)
  4003c4:	02 00 02 04 
  4003c8:	52 00 00 00 	xor $2,$2,$3
  4003cc:	00 02 03 02 
  4003d0:	30 00 00 00 	sb $2,2($4)
  4003d4:	02 00 02 04 
  4003d8:	22 00 00 00 	lbu $2,6($4)
  4003dc:	06 00 02 04 
  4003e0:	22 00 00 00 	lbu $3,1($29)
  4003e4:	01 00 03 1d 
  4003e8:	52 00 00 00 	xor $2,$2,$3
  4003ec:	00 02 03 02 
  4003f0:	30 00 00 00 	sb $2,6($4)
  4003f4:	06 00 02 04 
  4003f8:	22 00 00 00 	lbu $2,10($4)
  4003fc:	0a 00 02 04 
  400400:	22 00 00 00 	lbu $3,2($29)
  400404:	02 00 03 1d 
  400408:	52 00 00 00 	xor $2,$2,$3
  40040c:	00 02 03 02 
  400410:	30 00 00 00 	sb $2,10($4)
  400414:	0a 00 02 04 
  400418:	22 00 00 00 	lbu $2,14($4)
  40041c:	0e 00 02 04 
  400420:	22 00 00 00 	lbu $3,3($29)
  400424:	03 00 03 1d 
  400428:	52 00 00 00 	xor $2,$2,$3
  40042c:	00 02 03 02 
  400430:	30 00 00 00 	sb $2,14($4)
  400434:	0e 00 02 04 
  400438:	22 00 00 00 	lbu $3,15($5)
  40043c:	0f 00 03 05 
  400440:	30 00 00 00 	sb $3,0($29)
  400444:	00 00 03 1d 
  400448:	26 00 00 00 	lhu $2,14($5)
  40044c:	0e 00 02 05 
  400450:	30 00 00 00 	sb $2,1($29)
  400454:	01 00 02 1d 
  400458:	28 00 00 00 	lw $2,12($5)
  40045c:	0c 00 02 05 
  400460:	57 00 00 00 	srl $2,$2,0x8
  400464:	08 02 02 00 
  400468:	30 00 00 00 	sb $2,2($29)
  40046c:	02 00 02 1d 
  400470:	28 00 00 00 	lw $2,12($5)
  400474:	0c 00 02 05 
  400478:	30 00 00 00 	sb $2,3($29)
  40047c:	03 00 02 1d 
  400480:	22 00 00 00 	lbu $2,3($4)
  400484:	03 00 02 04 
  400488:	52 00 00 00 	xor $2,$2,$3
  40048c:	00 02 03 02 
  400490:	30 00 00 00 	sb $2,3($4)
  400494:	03 00 02 04 
  400498:	22 00 00 00 	lbu $2,7($4)
  40049c:	07 00 02 04 
  4004a0:	22 00 00 00 	lbu $3,1($29)
  4004a4:	01 00 03 1d 
  4004a8:	52 00 00 00 	xor $2,$2,$3
  4004ac:	00 02 03 02 
  4004b0:	30 00 00 00 	sb $2,7($4)
  4004b4:	07 00 02 04 
  4004b8:	22 00 00 00 	lbu $2,11($4)
  4004bc:	0b 00 02 04 
  4004c0:	22 00 00 00 	lbu $3,2($29)
  4004c4:	02 00 03 1d 
  4004c8:	52 00 00 00 	xor $2,$2,$3
  4004cc:	00 02 03 02 
  4004d0:	30 00 00 00 	sb $2,11($4)
  4004d4:	0b 00 02 04 
  4004d8:	22 00 00 00 	lbu $2,15($4)
  4004dc:	0f 00 02 04 
  4004e0:	22 00 00 00 	lbu $3,3($29)
  4004e4:	03 00 03 1d 
  4004e8:	52 00 00 00 	xor $2,$2,$3
  4004ec:	00 02 03 02 
  4004f0:	30 00 00 00 	sb $2,15($4)
  4004f4:	0f 00 02 04 
  4004f8:	43 00 00 00 	addiu $29,$29,8
  4004fc:	08 00 1d 1d 
  400500:	03 00 00 00 	jr $31
  400504:	00 00 00 1f 

00400508 <SubBytes>:
  400508:	22 00 00 00 	lbu $3,0($4)
  40050c:	00 00 03 04 
  400510:	a2 00 00 00 	lui $5,4096
  400514:	00 10 05 00 
  400518:	43 00 00 00 	addiu $5,$5,0
  40051c:	00 00 05 05 
  400520:	4f 00 00 00 	andi $2,$3,240
  400524:	f0 00 02 03 
  400528:	42 00 00 00 	addu $2,$2,$5
  40052c:	00 02 05 02 
  400530:	4f 00 00 00 	andi $3,$3,15
  400534:	0f 00 03 03 
  400538:	42 00 00 00 	addu $2,$2,$3
  40053c:	00 02 03 02 
  400540:	22 00 00 00 	lbu $2,0($2)
  400544:	00 00 02 02 
  400548:	22 00 00 00 	lbu $3,1($4)
  40054c:	01 00 03 04 
  400550:	30 00 00 00 	sb $2,0($4)
  400554:	00 00 02 04 
  400558:	4f 00 00 00 	andi $2,$3,240
  40055c:	f0 00 02 03 
  400560:	42 00 00 00 	addu $2,$2,$5
  400564:	00 02 05 02 
  400568:	4f 00 00 00 	andi $3,$3,15
  40056c:	0f 00 03 03 
  400570:	42 00 00 00 	addu $2,$2,$3
  400574:	00 02 03 02 
  400578:	22 00 00 00 	lbu $2,0($2)
  40057c:	00 00 02 02 
  400580:	22 00 00 00 	lbu $3,2($4)
  400584:	02 00 03 04 
  400588:	30 00 00 00 	sb $2,1($4)
  40058c:	01 00 02 04 
  400590:	4f 00 00 00 	andi $2,$3,240
  400594:	f0 00 02 03 
  400598:	42 00 00 00 	addu $2,$2,$5
  40059c:	00 02 05 02 
  4005a0:	4f 00 00 00 	andi $3,$3,15
  4005a4:	0f 00 03 03 
  4005a8:	42 00 00 00 	addu $2,$2,$3
  4005ac:	00 02 03 02 
  4005b0:	22 00 00 00 	lbu $2,0($2)
  4005b4:	00 00 02 02 
  4005b8:	22 00 00 00 	lbu $3,3($4)
  4005bc:	03 00 03 04 
  4005c0:	30 00 00 00 	sb $2,2($4)
  4005c4:	02 00 02 04 
  4005c8:	4f 00 00 00 	andi $2,$3,240
  4005cc:	f0 00 02 03 
  4005d0:	42 00 00 00 	addu $2,$2,$5
  4005d4:	00 02 05 02 
  4005d8:	4f 00 00 00 	andi $3,$3,15
  4005dc:	0f 00 03 03 
  4005e0:	42 00 00 00 	addu $2,$2,$3
  4005e4:	00 02 03 02 
  4005e8:	22 00 00 00 	lbu $2,0($2)
  4005ec:	00 00 02 02 
  4005f0:	22 00 00 00 	lbu $3,4($4)
  4005f4:	04 00 03 04 
  4005f8:	30 00 00 00 	sb $2,3($4)
  4005fc:	03 00 02 04 
  400600:	4f 00 00 00 	andi $2,$3,240
  400604:	f0 00 02 03 
  400608:	42 00 00 00 	addu $2,$2,$5
  40060c:	00 02 05 02 
  400610:	4f 00 00 00 	andi $3,$3,15
  400614:	0f 00 03 03 
  400618:	42 00 00 00 	addu $2,$2,$3
  40061c:	00 02 03 02 
  400620:	22 00 00 00 	lbu $2,0($2)
  400624:	00 00 02 02 
  400628:	22 00 00 00 	lbu $3,5($4)
  40062c:	05 00 03 04 
  400630:	30 00 00 00 	sb $2,4($4)
  400634:	04 00 02 04 
  400638:	4f 00 00 00 	andi $2,$3,240
  40063c:	f0 00 02 03 
  400640:	42 00 00 00 	addu $2,$2,$5
  400644:	00 02 05 02 
  400648:	4f 00 00 00 	andi $3,$3,15
  40064c:	0f 00 03 03 
  400650:	42 00 00 00 	addu $2,$2,$3
  400654:	00 02 03 02 
  400658:	22 00 00 00 	lbu $2,0($2)
  40065c:	00 00 02 02 
  400660:	22 00 00 00 	lbu $3,6($4)
  400664:	06 00 03 04 
  400668:	30 00 00 00 	sb $2,5($4)
  40066c:	05 00 02 04 
  400670:	4f 00 00 00 	andi $2,$3,240
  400674:	f0 00 02 03 
  400678:	42 00 00 00 	addu $2,$2,$5
  40067c:	00 02 05 02 
  400680:	4f 00 00 00 	andi $3,$3,15
  400684:	0f 00 03 03 
  400688:	42 00 00 00 	addu $2,$2,$3
  40068c:	00 02 03 02 
  400690:	22 00 00 00 	lbu $2,0($2)
  400694:	00 00 02 02 
  400698:	22 00 00 00 	lbu $3,7($4)
  40069c:	07 00 03 04 
  4006a0:	30 00 00 00 	sb $2,6($4)
  4006a4:	06 00 02 04 
  4006a8:	4f 00 00 00 	andi $2,$3,240
  4006ac:	f0 00 02 03 
  4006b0:	42 00 00 00 	addu $2,$2,$5
  4006b4:	00 02 05 02 
  4006b8:	4f 00 00 00 	andi $3,$3,15
  4006bc:	0f 00 03 03 
  4006c0:	42 00 00 00 	addu $2,$2,$3
  4006c4:	00 02 03 02 
  4006c8:	22 00 00 00 	lbu $2,0($2)
  4006cc:	00 00 02 02 
  4006d0:	22 00 00 00 	lbu $3,8($4)
  4006d4:	08 00 03 04 
  4006d8:	30 00 00 00 	sb $2,7($4)
  4006dc:	07 00 02 04 
  4006e0:	4f 00 00 00 	andi $2,$3,240
  4006e4:	f0 00 02 03 
  4006e8:	42 00 00 00 	addu $2,$2,$5
  4006ec:	00 02 05 02 
  4006f0:	4f 00 00 00 	andi $3,$3,15
  4006f4:	0f 00 03 03 
  4006f8:	42 00 00 00 	addu $2,$2,$3
  4006fc:	00 02 03 02 
  400700:	22 00 00 00 	lbu $2,0($2)
  400704:	00 00 02 02 
  400708:	22 00 00 00 	lbu $3,9($4)
  40070c:	09 00 03 04 
  400710:	30 00 00 00 	sb $2,8($4)
  400714:	08 00 02 04 
  400718:	4f 00 00 00 	andi $2,$3,240
  40071c:	f0 00 02 03 
  400720:	42 00 00 00 	addu $2,$2,$5
  400724:	00 02 05 02 
  400728:	4f 00 00 00 	andi $3,$3,15
  40072c:	0f 00 03 03 
  400730:	42 00 00 00 	addu $2,$2,$3
  400734:	00 02 03 02 
  400738:	22 00 00 00 	lbu $2,0($2)
  40073c:	00 00 02 02 
  400740:	22 00 00 00 	lbu $3,10($4)
  400744:	0a 00 03 04 
  400748:	30 00 00 00 	sb $2,9($4)
  40074c:	09 00 02 04 
  400750:	4f 00 00 00 	andi $2,$3,240
  400754:	f0 00 02 03 
  400758:	42 00 00 00 	addu $2,$2,$5
  40075c:	00 02 05 02 
  400760:	4f 00 00 00 	andi $3,$3,15
  400764:	0f 00 03 03 
  400768:	42 00 00 00 	addu $2,$2,$3
  40076c:	00 02 03 02 
  400770:	22 00 00 00 	lbu $2,0($2)
  400774:	00 00 02 02 
  400778:	22 00 00 00 	lbu $3,11($4)
  40077c:	0b 00 03 04 
  400780:	30 00 00 00 	sb $2,10($4)
  400784:	0a 00 02 04 
  400788:	4f 00 00 00 	andi $2,$3,240
  40078c:	f0 00 02 03 
  400790:	42 00 00 00 	addu $2,$2,$5
  400794:	00 02 05 02 
  400798:	4f 00 00 00 	andi $3,$3,15
  40079c:	0f 00 03 03 
  4007a0:	42 00 00 00 	addu $2,$2,$3
  4007a4:	00 02 03 02 
  4007a8:	22 00 00 00 	lbu $2,0($2)
  4007ac:	00 00 02 02 
  4007b0:	30 00 00 00 	sb $2,11($4)
  4007b4:	0b 00 02 04 
  4007b8:	22 00 00 00 	lbu $3,12($4)
  4007bc:	0c 00 03 04 
  4007c0:	4f 00 00 00 	andi $2,$3,240
  4007c4:	f0 00 02 03 
  4007c8:	42 00 00 00 	addu $2,$2,$5
  4007cc:	00 02 05 02 
  4007d0:	4f 00 00 00 	andi $3,$3,15
  4007d4:	0f 00 03 03 
  4007d8:	42 00 00 00 	addu $2,$2,$3
  4007dc:	00 02 03 02 
  4007e0:	22 00 00 00 	lbu $2,0($2)
  4007e4:	00 00 02 02 
  4007e8:	22 00 00 00 	lbu $3,13($4)
  4007ec:	0d 00 03 04 
  4007f0:	30 00 00 00 	sb $2,12($4)
  4007f4:	0c 00 02 04 
  4007f8:	4f 00 00 00 	andi $2,$3,240
  4007fc:	f0 00 02 03 
  400800:	42 00 00 00 	addu $2,$2,$5
  400804:	00 02 05 02 
  400808:	4f 00 00 00 	andi $3,$3,15
  40080c:	0f 00 03 03 
  400810:	42 00 00 00 	addu $2,$2,$3
  400814:	00 02 03 02 
  400818:	22 00 00 00 	lbu $2,0($2)
  40081c:	00 00 02 02 
  400820:	22 00 00 00 	lbu $3,14($4)
  400824:	0e 00 03 04 
  400828:	30 00 00 00 	sb $2,13($4)
  40082c:	0d 00 02 04 
  400830:	4f 00 00 00 	andi $2,$3,240
  400834:	f0 00 02 03 
  400838:	42 00 00 00 	addu $2,$2,$5
  40083c:	00 02 05 02 
  400840:	4f 00 00 00 	andi $3,$3,15
  400844:	0f 00 03 03 
  400848:	42 00 00 00 	addu $2,$2,$3
  40084c:	00 02 03 02 
  400850:	22 00 00 00 	lbu $2,0($2)
  400854:	00 00 02 02 
  400858:	22 00 00 00 	lbu $3,15($4)
  40085c:	0f 00 03 04 
  400860:	30 00 00 00 	sb $2,14($4)
  400864:	0e 00 02 04 
  400868:	4f 00 00 00 	andi $2,$3,240
  40086c:	f0 00 02 03 
  400870:	42 00 00 00 	addu $2,$2,$5
  400874:	00 02 05 02 
  400878:	4f 00 00 00 	andi $3,$3,15
  40087c:	0f 00 03 03 
  400880:	42 00 00 00 	addu $2,$2,$3
  400884:	00 02 03 02 
  400888:	22 00 00 00 	lbu $2,0($2)
  40088c:	00 00 02 02 
  400890:	30 00 00 00 	sb $2,15($4)
  400894:	0f 00 02 04 
  400898:	03 00 00 00 	jr $31
  40089c:	00 00 00 1f 

004008a0 <ShiftRows>:
  4008a0:	22 00 00 00 	lbu $11,4($4)
  4008a4:	04 00 0b 04 
  4008a8:	22 00 00 00 	lbu $9,7($4)
  4008ac:	07 00 09 04 
  4008b0:	22 00 00 00 	lbu $10,10($4)
  4008b4:	0a 00 0a 04 
  4008b8:	22 00 00 00 	lbu $8,11($4)
  4008bc:	0b 00 08 04 
  4008c0:	22 00 00 00 	lbu $2,5($4)
  4008c4:	05 00 02 04 
  4008c8:	22 00 00 00 	lbu $3,6($4)
  4008cc:	06 00 03 04 
  4008d0:	22 00 00 00 	lbu $7,15($4)
  4008d4:	0f 00 07 04 
  4008d8:	22 00 00 00 	lbu $5,14($4)
  4008dc:	0e 00 05 04 
  4008e0:	22 00 00 00 	lbu $6,13($4)
  4008e4:	0d 00 06 04 
  4008e8:	30 00 00 00 	sb $11,7($4)
  4008ec:	07 00 0b 04 
  4008f0:	22 00 00 00 	lbu $11,8($4)
  4008f4:	08 00 0b 04 
  4008f8:	30 00 00 00 	sb $11,10($4)
  4008fc:	0a 00 0b 04 
  400900:	22 00 00 00 	lbu $11,9($4)
  400904:	09 00 0b 04 
  400908:	30 00 00 00 	sb $11,11($4)
  40090c:	0b 00 0b 04 
  400910:	22 00 00 00 	lbu $11,12($4)
  400914:	0c 00 0b 04 
  400918:	30 00 00 00 	sb $2,4($4)
  40091c:	04 00 02 04 
  400920:	30 00 00 00 	sb $3,5($4)
  400924:	05 00 03 04 
  400928:	30 00 00 00 	sb $9,6($4)
  40092c:	06 00 09 04 
  400930:	30 00 00 00 	sb $5,15($4)
  400934:	0f 00 05 04 
  400938:	30 00 00 00 	sb $6,14($4)
  40093c:	0e 00 06 04 
  400940:	30 00 00 00 	sb $10,8($4)
  400944:	08 00 0a 04 
  400948:	30 00 00 00 	sb $8,9($4)
  40094c:	09 00 08 04 
  400950:	30 00 00 00 	sb $7,12($4)
  400954:	0c 00 07 04 
  400958:	30 00 00 00 	sb $11,13($4)
  40095c:	0d 00 0b 04 
  400960:	03 00 00 00 	jr $31
  400964:	00 00 00 1f 

00400968 <MixColumns>:
  400968:	22 00 00 00 	lbu $3,0($4)
  40096c:	00 00 03 04 
  400970:	43 00 00 00 	addiu $29,$29,-8
  400974:	f8 ff 1d 1d 
  400978:	30 00 00 00 	sb $3,0($29)
  40097c:	00 00 03 1d 
  400980:	22 00 00 00 	lbu $2,4($4)
  400984:	04 00 02 04 
  400988:	30 00 00 00 	sb $2,1($29)
  40098c:	01 00 02 1d 
  400990:	22 00 00 00 	lbu $2,8($4)
  400994:	08 00 02 04 
  400998:	30 00 00 00 	sb $2,2($29)
  40099c:	02 00 02 1d 
  4009a0:	22 00 00 00 	lbu $2,12($4)
  4009a4:	0c 00 02 04 
  4009a8:	30 00 00 00 	sb $2,3($29)
  4009ac:	03 00 02 1d 
  4009b0:	55 00 00 00 	sll $2,$3,0x1
  4009b4:	01 02 03 00 
  4009b8:	42 00 00 00 	addu $2,$2,$3
  4009bc:	00 02 03 02 
  4009c0:	55 00 00 00 	sll $2,$2,0x1
  4009c4:	01 02 02 00 
  4009c8:	a2 00 00 00 	lui $3,4096
  4009cc:	00 10 03 00 
  4009d0:	42 00 00 00 	addu $3,$3,$2
  4009d4:	00 03 02 03 
  4009d8:	22 00 00 00 	lbu $3,704($3)
  4009dc:	c0 02 03 03 
  4009e0:	30 00 00 00 	sb $3,0($4)
  4009e4:	00 00 03 04 
  4009e8:	22 00 00 00 	lbu $5,1($29)
  4009ec:	01 00 05 1d 
  4009f0:	55 00 00 00 	sll $2,$5,0x1
  4009f4:	01 02 05 00 
  4009f8:	42 00 00 00 	addu $2,$2,$5
  4009fc:	00 02 05 02 
  400a00:	55 00 00 00 	sll $2,$2,0x1
  400a04:	01 02 02 00 
  400a08:	a2 00 00 00 	lui $1,4096
  400a0c:	00 10 01 00 
  400a10:	42 00 00 00 	addu $1,$1,$2
  400a14:	00 01 02 01 
  400a18:	22 00 00 00 	lbu $2,705($1)
  400a1c:	c1 02 02 01 
  400a20:	52 00 00 00 	xor $3,$3,$2
  400a24:	00 03 02 03 
  400a28:	30 00 00 00 	sb $3,0($4)
  400a2c:	00 00 03 04 
  400a30:	22 00 00 00 	lbu $2,2($29)
  400a34:	02 00 02 1d 
  400a38:	52 00 00 00 	xor $3,$3,$2
  400a3c:	00 03 02 03 
  400a40:	30 00 00 00 	sb $3,0($4)
  400a44:	00 00 03 04 
  400a48:	22 00 00 00 	lbu $2,3($29)
  400a4c:	03 00 02 1d 
  400a50:	52 00 00 00 	xor $3,$3,$2
  400a54:	00 03 02 03 
  400a58:	30 00 00 00 	sb $3,0($4)
  400a5c:	00 00 03 04 
  400a60:	22 00 00 00 	lbu $3,0($29)
  400a64:	00 00 03 1d 
  400a68:	30 00 00 00 	sb $3,4($4)
  400a6c:	04 00 03 04 
  400a70:	22 00 00 00 	lbu $5,1($29)
  400a74:	01 00 05 1d 
  400a78:	55 00 00 00 	sll $2,$5,0x1
  400a7c:	01 02 05 00 
  400a80:	42 00 00 00 	addu $2,$2,$5
  400a84:	00 02 05 02 
  400a88:	55 00 00 00 	sll $2,$2,0x1
  400a8c:	01 02 02 00 
  400a90:	a2 00 00 00 	lui $1,4096
  400a94:	00 10 01 00 
  400a98:	42 00 00 00 	addu $1,$1,$2
  400a9c:	00 01 02 01 
  400aa0:	22 00 00 00 	lbu $2,704($1)
  400aa4:	c0 02 02 01 
  400aa8:	52 00 00 00 	xor $3,$3,$2
  400aac:	00 03 02 03 
  400ab0:	30 00 00 00 	sb $3,4($4)
  400ab4:	04 00 03 04 
  400ab8:	22 00 00 00 	lbu $5,2($29)
  400abc:	02 00 05 1d 
  400ac0:	55 00 00 00 	sll $2,$5,0x1
  400ac4:	01 02 05 00 
  400ac8:	42 00 00 00 	addu $2,$2,$5
  400acc:	00 02 05 02 
  400ad0:	55 00 00 00 	sll $2,$2,0x1
  400ad4:	01 02 02 00 
  400ad8:	a2 00 00 00 	lui $1,4096
  400adc:	00 10 01 00 
  400ae0:	42 00 00 00 	addu $1,$1,$2
  400ae4:	00 01 02 01 
  400ae8:	22 00 00 00 	lbu $2,705($1)
  400aec:	c1 02 02 01 
  400af0:	52 00 00 00 	xor $3,$3,$2
  400af4:	00 03 02 03 
  400af8:	30 00 00 00 	sb $3,4($4)
  400afc:	04 00 03 04 
  400b00:	22 00 00 00 	lbu $2,3($29)
  400b04:	03 00 02 1d 
  400b08:	52 00 00 00 	xor $3,$3,$2
  400b0c:	00 03 02 03 
  400b10:	30 00 00 00 	sb $3,4($4)
  400b14:	04 00 03 04 
  400b18:	22 00 00 00 	lbu $3,0($29)
  400b1c:	00 00 03 1d 
  400b20:	30 00 00 00 	sb $3,8($4)
  400b24:	08 00 03 04 
  400b28:	22 00 00 00 	lbu $2,1($29)
  400b2c:	01 00 02 1d 
  400b30:	52 00 00 00 	xor $3,$3,$2
  400b34:	00 03 02 03 
  400b38:	30 00 00 00 	sb $3,8($4)
  400b3c:	08 00 03 04 
  400b40:	22 00 00 00 	lbu $5,2($29)
  400b44:	02 00 05 1d 
  400b48:	55 00 00 00 	sll $2,$5,0x1
  400b4c:	01 02 05 00 
  400b50:	42 00 00 00 	addu $2,$2,$5
  400b54:	00 02 05 02 
  400b58:	55 00 00 00 	sll $2,$2,0x1
  400b5c:	01 02 02 00 
  400b60:	a2 00 00 00 	lui $1,4096
  400b64:	00 10 01 00 
  400b68:	42 00 00 00 	addu $1,$1,$2
  400b6c:	00 01 02 01 
  400b70:	22 00 00 00 	lbu $2,704($1)
  400b74:	c0 02 02 01 
  400b78:	52 00 00 00 	xor $3,$3,$2
  400b7c:	00 03 02 03 
  400b80:	30 00 00 00 	sb $3,8($4)
  400b84:	08 00 03 04 
  400b88:	22 00 00 00 	lbu $5,3($29)
  400b8c:	03 00 05 1d 
  400b90:	55 00 00 00 	sll $2,$5,0x1
  400b94:	01 02 05 00 
  400b98:	42 00 00 00 	addu $2,$2,$5
  400b9c:	00 02 05 02 
  400ba0:	55 00 00 00 	sll $2,$2,0x1
  400ba4:	01 02 02 00 
  400ba8:	a2 00 00 00 	lui $1,4096
  400bac:	00 10 01 00 
  400bb0:	42 00 00 00 	addu $1,$1,$2
  400bb4:	00 01 02 01 
  400bb8:	22 00 00 00 	lbu $2,705($1)
  400bbc:	c1 02 02 01 
  400bc0:	52 00 00 00 	xor $3,$3,$2
  400bc4:	00 03 02 03 
  400bc8:	30 00 00 00 	sb $3,8($4)
  400bcc:	08 00 03 04 
  400bd0:	22 00 00 00 	lbu $3,0($29)
  400bd4:	00 00 03 1d 
  400bd8:	55 00 00 00 	sll $2,$3,0x1
  400bdc:	01 02 03 00 
  400be0:	42 00 00 00 	addu $2,$2,$3
  400be4:	00 02 03 02 
  400be8:	55 00 00 00 	sll $2,$2,0x1
  400bec:	01 02 02 00 
  400bf0:	a2 00 00 00 	lui $3,4096
  400bf4:	00 10 03 00 
  400bf8:	42 00 00 00 	addu $3,$3,$2
  400bfc:	00 03 02 03 
  400c00:	22 00 00 00 	lbu $3,705($3)
  400c04:	c1 02 03 03 
  400c08:	30 00 00 00 	sb $3,12($4)
  400c0c:	0c 00 03 04 
  400c10:	22 00 00 00 	lbu $2,1($29)
  400c14:	01 00 02 1d 
  400c18:	52 00 00 00 	xor $3,$3,$2
  400c1c:	00 03 02 03 
  400c20:	30 00 00 00 	sb $3,12($4)
  400c24:	0c 00 03 04 
  400c28:	22 00 00 00 	lbu $2,2($29)
  400c2c:	02 00 02 1d 
  400c30:	52 00 00 00 	xor $3,$3,$2
  400c34:	00 03 02 03 
  400c38:	30 00 00 00 	sb $3,12($4)
  400c3c:	0c 00 03 04 
  400c40:	22 00 00 00 	lbu $5,3($29)
  400c44:	03 00 05 1d 
  400c48:	55 00 00 00 	sll $2,$5,0x1
  400c4c:	01 02 05 00 
  400c50:	42 00 00 00 	addu $2,$2,$5
  400c54:	00 02 05 02 
  400c58:	55 00 00 00 	sll $2,$2,0x1
  400c5c:	01 02 02 00 
  400c60:	a2 00 00 00 	lui $1,4096
  400c64:	00 10 01 00 
  400c68:	42 00 00 00 	addu $1,$1,$2
  400c6c:	00 01 02 01 
  400c70:	22 00 00 00 	lbu $2,704($1)
  400c74:	c0 02 02 01 
  400c78:	22 00 00 00 	lbu $5,1($4)
  400c7c:	01 00 05 04 
  400c80:	52 00 00 00 	xor $3,$3,$2
  400c84:	00 03 02 03 
  400c88:	30 00 00 00 	sb $3,12($4)
  400c8c:	0c 00 03 04 
  400c90:	30 00 00 00 	sb $5,0($29)
  400c94:	00 00 05 1d 
  400c98:	22 00 00 00 	lbu $2,5($4)
  400c9c:	05 00 02 04 
  400ca0:	30 00 00 00 	sb $2,1($29)
  400ca4:	01 00 02 1d 
  400ca8:	22 00 00 00 	lbu $2,9($4)
  400cac:	09 00 02 04 
  400cb0:	30 00 00 00 	sb $2,2($29)
  400cb4:	02 00 02 1d 
  400cb8:	22 00 00 00 	lbu $2,13($4)
  400cbc:	0d 00 02 04 
  400cc0:	30 00 00 00 	sb $2,3($29)
  400cc4:	03 00 02 1d 
  400cc8:	55 00 00 00 	sll $2,$5,0x1
  400ccc:	01 02 05 00 
  400cd0:	42 00 00 00 	addu $2,$2,$5
  400cd4:	00 02 05 02 
  400cd8:	55 00 00 00 	sll $2,$2,0x1
  400cdc:	01 02 02 00 
  400ce0:	a2 00 00 00 	lui $3,4096
  400ce4:	00 10 03 00 
  400ce8:	42 00 00 00 	addu $3,$3,$2
  400cec:	00 03 02 03 
  400cf0:	22 00 00 00 	lbu $3,704($3)
  400cf4:	c0 02 03 03 
  400cf8:	30 00 00 00 	sb $3,1($4)
  400cfc:	01 00 03 04 
  400d00:	22 00 00 00 	lbu $5,1($29)
  400d04:	01 00 05 1d 
  400d08:	55 00 00 00 	sll $2,$5,0x1
  400d0c:	01 02 05 00 
  400d10:	42 00 00 00 	addu $2,$2,$5
  400d14:	00 02 05 02 
  400d18:	55 00 00 00 	sll $2,$2,0x1
  400d1c:	01 02 02 00 
  400d20:	a2 00 00 00 	lui $1,4096
  400d24:	00 10 01 00 
  400d28:	42 00 00 00 	addu $1,$1,$2
  400d2c:	00 01 02 01 
  400d30:	22 00 00 00 	lbu $2,705($1)
  400d34:	c1 02 02 01 
  400d38:	52 00 00 00 	xor $3,$3,$2
  400d3c:	00 03 02 03 
  400d40:	30 00 00 00 	sb $3,1($4)
  400d44:	01 00 03 04 
  400d48:	22 00 00 00 	lbu $2,2($29)
  400d4c:	02 00 02 1d 
  400d50:	52 00 00 00 	xor $3,$3,$2
  400d54:	00 03 02 03 
  400d58:	30 00 00 00 	sb $3,1($4)
  400d5c:	01 00 03 04 
  400d60:	22 00 00 00 	lbu $2,3($29)
  400d64:	03 00 02 1d 
  400d68:	52 00 00 00 	xor $3,$3,$2
  400d6c:	00 03 02 03 
  400d70:	30 00 00 00 	sb $3,1($4)
  400d74:	01 00 03 04 
  400d78:	22 00 00 00 	lbu $3,0($29)
  400d7c:	00 00 03 1d 
  400d80:	30 00 00 00 	sb $3,5($4)
  400d84:	05 00 03 04 
  400d88:	22 00 00 00 	lbu $5,1($29)
  400d8c:	01 00 05 1d 
  400d90:	55 00 00 00 	sll $2,$5,0x1
  400d94:	01 02 05 00 
  400d98:	42 00 00 00 	addu $2,$2,$5
  400d9c:	00 02 05 02 
  400da0:	55 00 00 00 	sll $2,$2,0x1
  400da4:	01 02 02 00 
  400da8:	a2 00 00 00 	lui $1,4096
  400dac:	00 10 01 00 
  400db0:	42 00 00 00 	addu $1,$1,$2
  400db4:	00 01 02 01 
  400db8:	22 00 00 00 	lbu $2,704($1)
  400dbc:	c0 02 02 01 
  400dc0:	52 00 00 00 	xor $3,$3,$2
  400dc4:	00 03 02 03 
  400dc8:	30 00 00 00 	sb $3,5($4)
  400dcc:	05 00 03 04 
  400dd0:	22 00 00 00 	lbu $5,2($29)
  400dd4:	02 00 05 1d 
  400dd8:	55 00 00 00 	sll $2,$5,0x1
  400ddc:	01 02 05 00 
  400de0:	42 00 00 00 	addu $2,$2,$5
  400de4:	00 02 05 02 
  400de8:	55 00 00 00 	sll $2,$2,0x1
  400dec:	01 02 02 00 
  400df0:	a2 00 00 00 	lui $1,4096
  400df4:	00 10 01 00 
  400df8:	42 00 00 00 	addu $1,$1,$2
  400dfc:	00 01 02 01 
  400e00:	22 00 00 00 	lbu $2,705($1)
  400e04:	c1 02 02 01 
  400e08:	52 00 00 00 	xor $3,$3,$2
  400e0c:	00 03 02 03 
  400e10:	30 00 00 00 	sb $3,5($4)
  400e14:	05 00 03 04 
  400e18:	22 00 00 00 	lbu $2,3($29)
  400e1c:	03 00 02 1d 
  400e20:	52 00 00 00 	xor $3,$3,$2
  400e24:	00 03 02 03 
  400e28:	30 00 00 00 	sb $3,5($4)
  400e2c:	05 00 03 04 
  400e30:	22 00 00 00 	lbu $3,0($29)
  400e34:	00 00 03 1d 
  400e38:	30 00 00 00 	sb $3,9($4)
  400e3c:	09 00 03 04 
  400e40:	22 00 00 00 	lbu $2,1($29)
  400e44:	01 00 02 1d 
  400e48:	52 00 00 00 	xor $3,$3,$2
  400e4c:	00 03 02 03 
  400e50:	30 00 00 00 	sb $3,9($4)
  400e54:	09 00 03 04 
  400e58:	22 00 00 00 	lbu $5,2($29)
  400e5c:	02 00 05 1d 
  400e60:	55 00 00 00 	sll $2,$5,0x1
  400e64:	01 02 05 00 
  400e68:	42 00 00 00 	addu $2,$2,$5
  400e6c:	00 02 05 02 
  400e70:	55 00 00 00 	sll $2,$2,0x1
  400e74:	01 02 02 00 
  400e78:	a2 00 00 00 	lui $1,4096
  400e7c:	00 10 01 00 
  400e80:	42 00 00 00 	addu $1,$1,$2
  400e84:	00 01 02 01 
  400e88:	22 00 00 00 	lbu $2,704($1)
  400e8c:	c0 02 02 01 
  400e90:	52 00 00 00 	xor $3,$3,$2
  400e94:	00 03 02 03 
  400e98:	30 00 00 00 	sb $3,9($4)
  400e9c:	09 00 03 04 
  400ea0:	22 00 00 00 	lbu $5,3($29)
  400ea4:	03 00 05 1d 
  400ea8:	55 00 00 00 	sll $2,$5,0x1
  400eac:	01 02 05 00 
  400eb0:	42 00 00 00 	addu $2,$2,$5
  400eb4:	00 02 05 02 
  400eb8:	55 00 00 00 	sll $2,$2,0x1
  400ebc:	01 02 02 00 
  400ec0:	a2 00 00 00 	lui $1,4096
  400ec4:	00 10 01 00 
  400ec8:	42 00 00 00 	addu $1,$1,$2
  400ecc:	00 01 02 01 
  400ed0:	22 00 00 00 	lbu $2,705($1)
  400ed4:	c1 02 02 01 
  400ed8:	52 00 00 00 	xor $3,$3,$2
  400edc:	00 03 02 03 
  400ee0:	30 00 00 00 	sb $3,9($4)
  400ee4:	09 00 03 04 
  400ee8:	22 00 00 00 	lbu $3,0($29)
  400eec:	00 00 03 1d 
  400ef0:	55 00 00 00 	sll $2,$3,0x1
  400ef4:	01 02 03 00 
  400ef8:	42 00 00 00 	addu $2,$2,$3
  400efc:	00 02 03 02 
  400f00:	55 00 00 00 	sll $2,$2,0x1
  400f04:	01 02 02 00 
  400f08:	a2 00 00 00 	lui $3,4096
  400f0c:	00 10 03 00 
  400f10:	42 00 00 00 	addu $3,$3,$2
  400f14:	00 03 02 03 
  400f18:	22 00 00 00 	lbu $3,705($3)
  400f1c:	c1 02 03 03 
  400f20:	30 00 00 00 	sb $3,13($4)
  400f24:	0d 00 03 04 
  400f28:	22 00 00 00 	lbu $2,1($29)
  400f2c:	01 00 02 1d 
  400f30:	52 00 00 00 	xor $3,$3,$2
  400f34:	00 03 02 03 
  400f38:	30 00 00 00 	sb $3,13($4)
  400f3c:	0d 00 03 04 
  400f40:	22 00 00 00 	lbu $2,2($29)
  400f44:	02 00 02 1d 
  400f48:	52 00 00 00 	xor $3,$3,$2
  400f4c:	00 03 02 03 
  400f50:	30 00 00 00 	sb $3,13($4)
  400f54:	0d 00 03 04 
  400f58:	22 00 00 00 	lbu $5,3($29)
  400f5c:	03 00 05 1d 
  400f60:	55 00 00 00 	sll $2,$5,0x1
  400f64:	01 02 05 00 
  400f68:	42 00 00 00 	addu $2,$2,$5
  400f6c:	00 02 05 02 
  400f70:	55 00 00 00 	sll $2,$2,0x1
  400f74:	01 02 02 00 
  400f78:	a2 00 00 00 	lui $1,4096
  400f7c:	00 10 01 00 
  400f80:	42 00 00 00 	addu $1,$1,$2
  400f84:	00 01 02 01 
  400f88:	22 00 00 00 	lbu $2,704($1)
  400f8c:	c0 02 02 01 
  400f90:	22 00 00 00 	lbu $5,2($4)
  400f94:	02 00 05 04 
  400f98:	52 00 00 00 	xor $3,$3,$2
  400f9c:	00 03 02 03 
  400fa0:	30 00 00 00 	sb $3,13($4)
  400fa4:	0d 00 03 04 
  400fa8:	30 00 00 00 	sb $5,0($29)
  400fac:	00 00 05 1d 
  400fb0:	22 00 00 00 	lbu $2,6($4)
  400fb4:	06 00 02 04 
  400fb8:	30 00 00 00 	sb $2,1($29)
  400fbc:	01 00 02 1d 
  400fc0:	22 00 00 00 	lbu $2,10($4)
  400fc4:	0a 00 02 04 
  400fc8:	30 00 00 00 	sb $2,2($29)
  400fcc:	02 00 02 1d 
  400fd0:	22 00 00 00 	lbu $2,14($4)
  400fd4:	0e 00 02 04 
  400fd8:	30 00 00 00 	sb $2,3($29)
  400fdc:	03 00 02 1d 
  400fe0:	55 00 00 00 	sll $2,$5,0x1
  400fe4:	01 02 05 00 
  400fe8:	42 00 00 00 	addu $2,$2,$5
  400fec:	00 02 05 02 
  400ff0:	55 00 00 00 	sll $2,$2,0x1
  400ff4:	01 02 02 00 
  400ff8:	a2 00 00 00 	lui $3,4096
  400ffc:	00 10 03 00 
  401000:	42 00 00 00 	addu $3,$3,$2
  401004:	00 03 02 03 
  401008:	22 00 00 00 	lbu $3,704($3)
  40100c:	c0 02 03 03 
  401010:	30 00 00 00 	sb $3,2($4)
  401014:	02 00 03 04 
  401018:	22 00 00 00 	lbu $5,1($29)
  40101c:	01 00 05 1d 
  401020:	55 00 00 00 	sll $2,$5,0x1
  401024:	01 02 05 00 
  401028:	42 00 00 00 	addu $2,$2,$5
  40102c:	00 02 05 02 
  401030:	55 00 00 00 	sll $2,$2,0x1
  401034:	01 02 02 00 
  401038:	a2 00 00 00 	lui $1,4096
  40103c:	00 10 01 00 
  401040:	42 00 00 00 	addu $1,$1,$2
  401044:	00 01 02 01 
  401048:	22 00 00 00 	lbu $2,705($1)
  40104c:	c1 02 02 01 
  401050:	52 00 00 00 	xor $3,$3,$2
  401054:	00 03 02 03 
  401058:	30 00 00 00 	sb $3,2($4)
  40105c:	02 00 03 04 
  401060:	22 00 00 00 	lbu $2,2($29)
  401064:	02 00 02 1d 
  401068:	52 00 00 00 	xor $3,$3,$2
  40106c:	00 03 02 03 
  401070:	30 00 00 00 	sb $3,2($4)
  401074:	02 00 03 04 
  401078:	22 00 00 00 	lbu $2,3($29)
  40107c:	03 00 02 1d 
  401080:	52 00 00 00 	xor $3,$3,$2
  401084:	00 03 02 03 
  401088:	30 00 00 00 	sb $3,2($4)
  40108c:	02 00 03 04 
  401090:	22 00 00 00 	lbu $3,0($29)
  401094:	00 00 03 1d 
  401098:	30 00 00 00 	sb $3,6($4)
  40109c:	06 00 03 04 
  4010a0:	22 00 00 00 	lbu $5,1($29)
  4010a4:	01 00 05 1d 
  4010a8:	55 00 00 00 	sll $2,$5,0x1
  4010ac:	01 02 05 00 
  4010b0:	42 00 00 00 	addu $2,$2,$5
  4010b4:	00 02 05 02 
  4010b8:	55 00 00 00 	sll $2,$2,0x1
  4010bc:	01 02 02 00 
  4010c0:	a2 00 00 00 	lui $1,4096
  4010c4:	00 10 01 00 
  4010c8:	42 00 00 00 	addu $1,$1,$2
  4010cc:	00 01 02 01 
  4010d0:	22 00 00 00 	lbu $2,704($1)
  4010d4:	c0 02 02 01 
  4010d8:	52 00 00 00 	xor $3,$3,$2
  4010dc:	00 03 02 03 
  4010e0:	30 00 00 00 	sb $3,6($4)
  4010e4:	06 00 03 04 
  4010e8:	22 00 00 00 	lbu $5,2($29)
  4010ec:	02 00 05 1d 
  4010f0:	55 00 00 00 	sll $2,$5,0x1
  4010f4:	01 02 05 00 
  4010f8:	42 00 00 00 	addu $2,$2,$5
  4010fc:	00 02 05 02 
  401100:	55 00 00 00 	sll $2,$2,0x1
  401104:	01 02 02 00 
  401108:	a2 00 00 00 	lui $1,4096
  40110c:	00 10 01 00 
  401110:	42 00 00 00 	addu $1,$1,$2
  401114:	00 01 02 01 
  401118:	22 00 00 00 	lbu $2,705($1)
  40111c:	c1 02 02 01 
  401120:	52 00 00 00 	xor $3,$3,$2
  401124:	00 03 02 03 
  401128:	30 00 00 00 	sb $3,6($4)
  40112c:	06 00 03 04 
  401130:	22 00 00 00 	lbu $2,3($29)
  401134:	03 00 02 1d 
  401138:	52 00 00 00 	xor $3,$3,$2
  40113c:	00 03 02 03 
  401140:	30 00 00 00 	sb $3,6($4)
  401144:	06 00 03 04 
  401148:	22 00 00 00 	lbu $3,0($29)
  40114c:	00 00 03 1d 
  401150:	30 00 00 00 	sb $3,10($4)
  401154:	0a 00 03 04 
  401158:	22 00 00 00 	lbu $2,1($29)
  40115c:	01 00 02 1d 
  401160:	52 00 00 00 	xor $3,$3,$2
  401164:	00 03 02 03 
  401168:	30 00 00 00 	sb $3,10($4)
  40116c:	0a 00 03 04 
  401170:	22 00 00 00 	lbu $5,2($29)
  401174:	02 00 05 1d 
  401178:	55 00 00 00 	sll $2,$5,0x1
  40117c:	01 02 05 00 
  401180:	42 00 00 00 	addu $2,$2,$5
  401184:	00 02 05 02 
  401188:	55 00 00 00 	sll $2,$2,0x1
  40118c:	01 02 02 00 
  401190:	a2 00 00 00 	lui $1,4096
  401194:	00 10 01 00 
  401198:	42 00 00 00 	addu $1,$1,$2
  40119c:	00 01 02 01 
  4011a0:	22 00 00 00 	lbu $2,704($1)
  4011a4:	c0 02 02 01 
  4011a8:	52 00 00 00 	xor $3,$3,$2
  4011ac:	00 03 02 03 
  4011b0:	30 00 00 00 	sb $3,10($4)
  4011b4:	0a 00 03 04 
  4011b8:	22 00 00 00 	lbu $5,3($29)
  4011bc:	03 00 05 1d 
  4011c0:	55 00 00 00 	sll $2,$5,0x1
  4011c4:	01 02 05 00 
  4011c8:	42 00 00 00 	addu $2,$2,$5
  4011cc:	00 02 05 02 
  4011d0:	55 00 00 00 	sll $2,$2,0x1
  4011d4:	01 02 02 00 
  4011d8:	a2 00 00 00 	lui $1,4096
  4011dc:	00 10 01 00 
  4011e0:	42 00 00 00 	addu $1,$1,$2
  4011e4:	00 01 02 01 
  4011e8:	22 00 00 00 	lbu $2,705($1)
  4011ec:	c1 02 02 01 
  4011f0:	52 00 00 00 	xor $3,$3,$2
  4011f4:	00 03 02 03 
  4011f8:	30 00 00 00 	sb $3,10($4)
  4011fc:	0a 00 03 04 
  401200:	22 00 00 00 	lbu $3,0($29)
  401204:	00 00 03 1d 
  401208:	55 00 00 00 	sll $2,$3,0x1
  40120c:	01 02 03 00 
  401210:	42 00 00 00 	addu $2,$2,$3
  401214:	00 02 03 02 
  401218:	55 00 00 00 	sll $2,$2,0x1
  40121c:	01 02 02 00 
  401220:	a2 00 00 00 	lui $3,4096
  401224:	00 10 03 00 
  401228:	42 00 00 00 	addu $3,$3,$2
  40122c:	00 03 02 03 
  401230:	22 00 00 00 	lbu $3,705($3)
  401234:	c1 02 03 03 
  401238:	30 00 00 00 	sb $3,14($4)
  40123c:	0e 00 03 04 
  401240:	22 00 00 00 	lbu $2,1($29)
  401244:	01 00 02 1d 
  401248:	52 00 00 00 	xor $3,$3,$2
  40124c:	00 03 02 03 
  401250:	30 00 00 00 	sb $3,14($4)
  401254:	0e 00 03 04 
  401258:	22 00 00 00 	lbu $2,2($29)
  40125c:	02 00 02 1d 
  401260:	52 00 00 00 	xor $3,$3,$2
  401264:	00 03 02 03 
  401268:	30 00 00 00 	sb $3,14($4)
  40126c:	0e 00 03 04 
  401270:	22 00 00 00 	lbu $5,3($29)
  401274:	03 00 05 1d 
  401278:	55 00 00 00 	sll $2,$5,0x1
  40127c:	01 02 05 00 
  401280:	42 00 00 00 	addu $2,$2,$5
  401284:	00 02 05 02 
  401288:	55 00 00 00 	sll $2,$2,0x1
  40128c:	01 02 02 00 
  401290:	a2 00 00 00 	lui $1,4096
  401294:	00 10 01 00 
  401298:	42 00 00 00 	addu $1,$1,$2
  40129c:	00 01 02 01 
  4012a0:	22 00 00 00 	lbu $2,704($1)
  4012a4:	c0 02 02 01 
  4012a8:	22 00 00 00 	lbu $5,3($4)
  4012ac:	03 00 05 04 
  4012b0:	52 00 00 00 	xor $3,$3,$2
  4012b4:	00 03 02 03 
  4012b8:	30 00 00 00 	sb $3,14($4)
  4012bc:	0e 00 03 04 
  4012c0:	30 00 00 00 	sb $5,0($29)
  4012c4:	00 00 05 1d 
  4012c8:	22 00 00 00 	lbu $2,7($4)
  4012cc:	07 00 02 04 
  4012d0:	30 00 00 00 	sb $2,1($29)
  4012d4:	01 00 02 1d 
  4012d8:	22 00 00 00 	lbu $2,11($4)
  4012dc:	0b 00 02 04 
  4012e0:	30 00 00 00 	sb $2,2($29)
  4012e4:	02 00 02 1d 
  4012e8:	22 00 00 00 	lbu $2,15($4)
  4012ec:	0f 00 02 04 
  4012f0:	30 00 00 00 	sb $2,3($29)
  4012f4:	03 00 02 1d 
  4012f8:	55 00 00 00 	sll $2,$5,0x1
  4012fc:	01 02 05 00 
  401300:	42 00 00 00 	addu $2,$2,$5
  401304:	00 02 05 02 
  401308:	55 00 00 00 	sll $2,$2,0x1
  40130c:	01 02 02 00 
  401310:	a2 00 00 00 	lui $3,4096
  401314:	00 10 03 00 
  401318:	42 00 00 00 	addu $3,$3,$2
  40131c:	00 03 02 03 
  401320:	22 00 00 00 	lbu $3,704($3)
  401324:	c0 02 03 03 
  401328:	30 00 00 00 	sb $3,3($4)
  40132c:	03 00 03 04 
  401330:	22 00 00 00 	lbu $5,1($29)
  401334:	01 00 05 1d 
  401338:	55 00 00 00 	sll $2,$5,0x1
  40133c:	01 02 05 00 
  401340:	42 00 00 00 	addu $2,$2,$5
  401344:	00 02 05 02 
  401348:	55 00 00 00 	sll $2,$2,0x1
  40134c:	01 02 02 00 
  401350:	a2 00 00 00 	lui $1,4096
  401354:	00 10 01 00 
  401358:	42 00 00 00 	addu $1,$1,$2
  40135c:	00 01 02 01 
  401360:	22 00 00 00 	lbu $2,705($1)
  401364:	c1 02 02 01 
  401368:	52 00 00 00 	xor $3,$3,$2
  40136c:	00 03 02 03 
  401370:	30 00 00 00 	sb $3,3($4)
  401374:	03 00 03 04 
  401378:	22 00 00 00 	lbu $2,2($29)
  40137c:	02 00 02 1d 
  401380:	52 00 00 00 	xor $3,$3,$2
  401384:	00 03 02 03 
  401388:	30 00 00 00 	sb $3,3($4)
  40138c:	03 00 03 04 
  401390:	22 00 00 00 	lbu $2,3($29)
  401394:	03 00 02 1d 
  401398:	52 00 00 00 	xor $3,$3,$2
  40139c:	00 03 02 03 
  4013a0:	30 00 00 00 	sb $3,3($4)
  4013a4:	03 00 03 04 
  4013a8:	22 00 00 00 	lbu $3,0($29)
  4013ac:	00 00 03 1d 
  4013b0:	30 00 00 00 	sb $3,7($4)
  4013b4:	07 00 03 04 
  4013b8:	22 00 00 00 	lbu $5,1($29)
  4013bc:	01 00 05 1d 
  4013c0:	55 00 00 00 	sll $2,$5,0x1
  4013c4:	01 02 05 00 
  4013c8:	42 00 00 00 	addu $2,$2,$5
  4013cc:	00 02 05 02 
  4013d0:	55 00 00 00 	sll $2,$2,0x1
  4013d4:	01 02 02 00 
  4013d8:	a2 00 00 00 	lui $1,4096
  4013dc:	00 10 01 00 
  4013e0:	42 00 00 00 	addu $1,$1,$2
  4013e4:	00 01 02 01 
  4013e8:	22 00 00 00 	lbu $2,704($1)
  4013ec:	c0 02 02 01 
  4013f0:	52 00 00 00 	xor $3,$3,$2
  4013f4:	00 03 02 03 
  4013f8:	30 00 00 00 	sb $3,7($4)
  4013fc:	07 00 03 04 
  401400:	22 00 00 00 	lbu $5,2($29)
  401404:	02 00 05 1d 
  401408:	55 00 00 00 	sll $2,$5,0x1
  40140c:	01 02 05 00 
  401410:	42 00 00 00 	addu $2,$2,$5
  401414:	00 02 05 02 
  401418:	55 00 00 00 	sll $2,$2,0x1
  40141c:	01 02 02 00 
  401420:	a2 00 00 00 	lui $1,4096
  401424:	00 10 01 00 
  401428:	42 00 00 00 	addu $1,$1,$2
  40142c:	00 01 02 01 
  401430:	22 00 00 00 	lbu $2,705($1)
  401434:	c1 02 02 01 
  401438:	52 00 00 00 	xor $3,$3,$2
  40143c:	00 03 02 03 
  401440:	30 00 00 00 	sb $3,7($4)
  401444:	07 00 03 04 
  401448:	22 00 00 00 	lbu $2,3($29)
  40144c:	03 00 02 1d 
  401450:	52 00 00 00 	xor $3,$3,$2
  401454:	00 03 02 03 
  401458:	30 00 00 00 	sb $3,7($4)
  40145c:	07 00 03 04 
  401460:	22 00 00 00 	lbu $3,0($29)
  401464:	00 00 03 1d 
  401468:	30 00 00 00 	sb $3,11($4)
  40146c:	0b 00 03 04 
  401470:	22 00 00 00 	lbu $2,1($29)
  401474:	01 00 02 1d 
  401478:	52 00 00 00 	xor $3,$3,$2
  40147c:	00 03 02 03 
  401480:	30 00 00 00 	sb $3,11($4)
  401484:	0b 00 03 04 
  401488:	22 00 00 00 	lbu $5,2($29)
  40148c:	02 00 05 1d 
  401490:	55 00 00 00 	sll $2,$5,0x1
  401494:	01 02 05 00 
  401498:	42 00 00 00 	addu $2,$2,$5
  40149c:	00 02 05 02 
  4014a0:	55 00 00 00 	sll $2,$2,0x1
  4014a4:	01 02 02 00 
  4014a8:	a2 00 00 00 	lui $1,4096
  4014ac:	00 10 01 00 
  4014b0:	42 00 00 00 	addu $1,$1,$2
  4014b4:	00 01 02 01 
  4014b8:	22 00 00 00 	lbu $2,704($1)
  4014bc:	c0 02 02 01 
  4014c0:	52 00 00 00 	xor $3,$3,$2
  4014c4:	00 03 02 03 
  4014c8:	30 00 00 00 	sb $3,11($4)
  4014cc:	0b 00 03 04 
  4014d0:	22 00 00 00 	lbu $5,3($29)
  4014d4:	03 00 05 1d 
  4014d8:	55 00 00 00 	sll $2,$5,0x1
  4014dc:	01 02 05 00 
  4014e0:	42 00 00 00 	addu $2,$2,$5
  4014e4:	00 02 05 02 
  4014e8:	55 00 00 00 	sll $2,$2,0x1
  4014ec:	01 02 02 00 
  4014f0:	a2 00 00 00 	lui $1,4096
  4014f4:	00 10 01 00 
  4014f8:	42 00 00 00 	addu $1,$1,$2
  4014fc:	00 01 02 01 
  401500:	22 00 00 00 	lbu $2,705($1)
  401504:	c1 02 02 01 
  401508:	52 00 00 00 	xor $3,$3,$2
  40150c:	00 03 02 03 
  401510:	30 00 00 00 	sb $3,11($4)
  401514:	0b 00 03 04 
  401518:	22 00 00 00 	lbu $3,0($29)
  40151c:	00 00 03 1d 
  401520:	55 00 00 00 	sll $2,$3,0x1
  401524:	01 02 03 00 
  401528:	42 00 00 00 	addu $2,$2,$3
  40152c:	00 02 03 02 
  401530:	55 00 00 00 	sll $2,$2,0x1
  401534:	01 02 02 00 
  401538:	a2 00 00 00 	lui $3,4096
  40153c:	00 10 03 00 
  401540:	42 00 00 00 	addu $3,$3,$2
  401544:	00 03 02 03 
  401548:	22 00 00 00 	lbu $3,705($3)
  40154c:	c1 02 03 03 
  401550:	30 00 00 00 	sb $3,15($4)
  401554:	0f 00 03 04 
  401558:	22 00 00 00 	lbu $2,1($29)
  40155c:	01 00 02 1d 
  401560:	52 00 00 00 	xor $3,$3,$2
  401564:	00 03 02 03 
  401568:	30 00 00 00 	sb $3,15($4)
  40156c:	0f 00 03 04 
  401570:	22 00 00 00 	lbu $2,2($29)
  401574:	02 00 02 1d 
  401578:	52 00 00 00 	xor $3,$3,$2
  40157c:	00 03 02 03 
  401580:	30 00 00 00 	sb $3,15($4)
  401584:	0f 00 03 04 
  401588:	22 00 00 00 	lbu $5,3($29)
  40158c:	03 00 05 1d 
  401590:	55 00 00 00 	sll $2,$5,0x1
  401594:	01 02 05 00 
  401598:	42 00 00 00 	addu $2,$2,$5
  40159c:	00 02 05 02 
  4015a0:	55 00 00 00 	sll $2,$2,0x1
  4015a4:	01 02 02 00 
  4015a8:	a2 00 00 00 	lui $1,4096
  4015ac:	00 10 01 00 
  4015b0:	42 00 00 00 	addu $1,$1,$2
  4015b4:	00 01 02 01 
  4015b8:	22 00 00 00 	lbu $2,704($1)
  4015bc:	c0 02 02 01 
  4015c0:	52 00 00 00 	xor $3,$3,$2
  4015c4:	00 03 02 03 
  4015c8:	30 00 00 00 	sb $3,15($4)
  4015cc:	0f 00 03 04 
  4015d0:	43 00 00 00 	addiu $29,$29,8
  4015d4:	08 00 1d 1d 
  4015d8:	03 00 00 00 	jr $31
  4015dc:	00 00 00 1f 

004015e0 <SubWord>:
  4015e0:	a2 00 00 00 	lui $6,4096
  4015e4:	00 10 06 00 
  4015e8:	43 00 00 00 	addiu $6,$6,0
  4015ec:	00 00 06 06 
  4015f0:	4f 00 00 00 	andi $5,$4,240
  4015f4:	f0 00 05 04 
  4015f8:	42 00 00 00 	addu $5,$5,$6
  4015fc:	00 05 06 05 
  401600:	4f 00 00 00 	andi $2,$4,15
  401604:	0f 00 02 04 
  401608:	42 00 00 00 	addu $5,$5,$2
  40160c:	00 05 02 05 
  401610:	57 00 00 00 	srl $2,$4,0x8
  401614:	08 02 04 00 
  401618:	4f 00 00 00 	andi $2,$2,240
  40161c:	f0 00 02 02 
  401620:	42 00 00 00 	addu $2,$2,$6
  401624:	00 02 06 02 
  401628:	57 00 00 00 	srl $3,$4,0x8
  40162c:	08 03 04 00 
  401630:	4f 00 00 00 	andi $3,$3,15
  401634:	0f 00 03 03 
  401638:	42 00 00 00 	addu $2,$2,$3
  40163c:	00 02 03 02 
  401640:	22 00 00 00 	lbu $2,0($2)
  401644:	00 00 02 02 
  401648:	22 00 00 00 	lbu $5,0($5)
  40164c:	00 00 05 05 
  401650:	57 00 00 00 	srl $3,$4,0x10
  401654:	10 03 04 00 
  401658:	4f 00 00 00 	andi $3,$3,15
  40165c:	0f 00 03 03 
  401660:	55 00 00 00 	sll $2,$2,0x8
  401664:	08 02 02 00 
  401668:	42 00 00 00 	addu $5,$5,$2
  40166c:	00 05 02 05 
  401670:	57 00 00 00 	srl $2,$4,0x10
  401674:	10 02 04 00 
  401678:	4f 00 00 00 	andi $2,$2,240
  40167c:	f0 00 02 02 
  401680:	42 00 00 00 	addu $2,$2,$6
  401684:	00 02 06 02 
  401688:	42 00 00 00 	addu $2,$2,$3
  40168c:	00 02 03 02 
  401690:	22 00 00 00 	lbu $3,0($2)
  401694:	00 00 03 02 
  401698:	57 00 00 00 	srl $2,$4,0x1c
  40169c:	1c 02 04 00 
  4016a0:	55 00 00 00 	sll $2,$2,0x4
  4016a4:	04 02 02 00 
  4016a8:	42 00 00 00 	addu $2,$2,$6
  4016ac:	00 02 06 02 
  4016b0:	57 00 00 00 	srl $4,$4,0x18
  4016b4:	18 04 04 00 
  4016b8:	4f 00 00 00 	andi $4,$4,15
  4016bc:	0f 00 04 04 
  4016c0:	42 00 00 00 	addu $2,$2,$4
  4016c4:	00 02 04 02 
  4016c8:	22 00 00 00 	lbu $2,0($2)
  4016cc:	00 00 02 02 
  4016d0:	55 00 00 00 	sll $3,$3,0x10
  4016d4:	10 03 03 00 
  4016d8:	42 00 00 00 	addu $5,$5,$3
  4016dc:	00 05 03 05 
  4016e0:	55 00 00 00 	sll $2,$2,0x18
  4016e4:	18 02 02 00 
  4016e8:	42 00 00 00 	addu $2,$5,$2
  4016ec:	00 02 02 05 
  4016f0:	03 00 00 00 	jr $31
  4016f4:	00 00 00 1f 

004016f8 <KeyExpansion>:
  4016f8:	43 00 00 00 	addiu $29,$29,-128
  4016fc:	80 ff 1d 1d 
  401700:	42 00 00 00 	addu $10,$0,$4
  401704:	00 0a 04 00 
  401708:	34 00 00 00 	sw $19,100($29)
  40170c:	64 00 13 1d 
  401710:	42 00 00 00 	addu $19,$0,$5
  401714:	00 13 05 00 
  401718:	43 00 00 00 	addiu $11,$0,4
  40171c:	04 00 0b 00 
  401720:	43 00 00 00 	addiu $8,$29,16
  401724:	10 00 08 1d 
  401728:	a2 00 00 00 	lui $7,4096
  40172c:	00 10 07 00 
  401730:	43 00 00 00 	addiu $7,$7,512
  401734:	00 02 07 07 
  401738:	43 00 00 00 	addiu $9,$7,48
  40173c:	30 00 09 07 
  401740:	34 00 00 00 	sw $31,120($29)
  401744:	78 00 1f 1d 
  401748:	34 00 00 00 	sw $23,116($29)
  40174c:	74 00 17 1d 
  401750:	34 00 00 00 	sw $22,112($29)
  401754:	70 00 16 1d 
  401758:	34 00 00 00 	sw $21,108($29)
  40175c:	6c 00 15 1d 
  401760:	34 00 00 00 	sw $20,104($29)
  401764:	68 00 14 1d 
  401768:	34 00 00 00 	sw $18,96($29)
  40176c:	60 00 12 1d 
  401770:	34 00 00 00 	sw $17,92($29)
  401774:	5c 00 11 1d 
  401778:	34 00 00 00 	sw $16,88($29)
  40177c:	58 00 10 1d 
  401780:	28 00 00 00 	lw $2,0($7)
  401784:	00 00 02 07 
  401788:	28 00 00 00 	lw $3,4($7)
  40178c:	04 00 03 07 
  401790:	28 00 00 00 	lw $4,8($7)
  401794:	08 00 04 07 
  401798:	28 00 00 00 	lw $5,12($7)
  40179c:	0c 00 05 07 
  4017a0:	34 00 00 00 	sw $2,0($8)
  4017a4:	00 00 02 08 
  4017a8:	34 00 00 00 	sw $3,4($8)
  4017ac:	04 00 03 08 
  4017b0:	34 00 00 00 	sw $4,8($8)
  4017b4:	08 00 04 08 
  4017b8:	34 00 00 00 	sw $5,12($8)
  4017bc:	0c 00 05 08 
  4017c0:	43 00 00 00 	addiu $7,$7,16
  4017c4:	10 00 07 07 
  4017c8:	43 00 00 00 	addiu $8,$8,16
  4017cc:	10 00 08 08 
  4017d0:	06 00 00 00 	bne $7,$9,401780 <KeyExpansion+0x88>
  4017d4:	ea ff 09 07 
  4017d8:	28 00 00 00 	lw $2,0($7)
  4017dc:	00 00 02 07 
  4017e0:	28 00 00 00 	lw $3,4($7)
  4017e4:	04 00 03 07 
  4017e8:	28 00 00 00 	lw $4,8($7)
  4017ec:	08 00 04 07 
  4017f0:	34 00 00 00 	sw $2,0($8)
  4017f4:	00 00 02 08 
  4017f8:	34 00 00 00 	sw $3,4($8)
  4017fc:	04 00 03 08 
  401800:	34 00 00 00 	sw $4,8($8)
  401804:	08 00 04 08 
  401808:	43 00 00 00 	addiu $2,$0,192
  40180c:	c0 00 02 00 
  401810:	05 00 00 00 	beq $6,$2,401870 <KeyExpansion+0x178>
  401814:	16 00 02 06 
  401818:	5c 00 00 00 	slti $2,$6,193
  40181c:	c1 00 02 06 
  401820:	05 00 00 00 	beq $2,$0,401840 <KeyExpansion+0x148>
  401824:	06 00 00 02 
  401828:	43 00 00 00 	addiu $2,$0,128
  40182c:	80 00 02 00 
  401830:	05 00 00 00 	beq $6,$2,401858 <KeyExpansion+0x160>
  401834:	08 00 02 06 
  401838:	01 00 00 00 	j 401af8 <KeyExpansion+0x400>
  40183c:	be 06 10 00 
  401840:	43 00 00 00 	addiu $2,$0,256
  401844:	00 01 02 00 
  401848:	05 00 00 00 	beq $6,$2,401888 <KeyExpansion+0x190>
  40184c:	0e 00 02 06 
  401850:	01 00 00 00 	j 401af8 <KeyExpansion+0x400>
  401854:	be 06 10 00 
  401858:	43 00 00 00 	addiu $7,$0,10
  40185c:	0a 00 07 00 
  401860:	43 00 00 00 	addiu $17,$0,4
  401864:	04 00 11 00 
  401868:	01 00 00 00 	j 401898 <KeyExpansion+0x1a0>
  40186c:	26 06 10 00 
  401870:	43 00 00 00 	addiu $7,$0,12
  401874:	0c 00 07 00 
  401878:	43 00 00 00 	addiu $17,$0,6
  40187c:	06 00 11 00 
  401880:	01 00 00 00 	j 401898 <KeyExpansion+0x1a0>
  401884:	26 06 10 00 
  401888:	43 00 00 00 	addiu $7,$0,14
  40188c:	0e 00 07 00 
  401890:	43 00 00 00 	addiu $17,$0,8
  401894:	08 00 11 00 
  401898:	42 00 00 00 	addu $16,$0,$0
  40189c:	00 10 00 00 
  4018a0:	05 00 00 00 	beq $17,$0,401938 <KeyExpansion+0x240>
  4018a4:	24 00 00 11 
  4018a8:	42 00 00 00 	addu $6,$0,$19
  4018ac:	00 06 13 00 
  4018b0:	42 00 00 00 	addu $5,$0,$10
  4018b4:	00 05 0a 00 
  4018b8:	22 00 00 00 	lbu $2,0($5)
  4018bc:	00 00 02 05 
  4018c0:	22 00 00 00 	lbu $4,1($5)
  4018c4:	01 00 04 05 
  4018c8:	43 00 00 00 	addiu $16,$16,1
  4018cc:	01 00 10 10 
  4018d0:	22 00 00 00 	lbu $3,2($5)
  4018d4:	02 00 03 05 
  4018d8:	55 00 00 00 	sll $2,$2,0x18
  4018dc:	18 02 02 00 
  4018e0:	55 00 00 00 	sll $4,$4,0x10
  4018e4:	10 04 04 00 
  4018e8:	50 00 00 00 	or $2,$2,$4
  4018ec:	00 02 04 02 
  4018f0:	22 00 00 00 	lbu $4,3($5)
  4018f4:	03 00 04 05 
  4018f8:	55 00 00 00 	sll $3,$3,0x8
  4018fc:	08 03 03 00 
  401900:	50 00 00 00 	or $2,$2,$3
  401904:	00 02 03 02 
  401908:	50 00 00 00 	or $2,$2,$4
  40190c:	00 02 04 02 
  401910:	34 00 00 00 	sw $2,0($6)
  401914:	00 00 02 06 
  401918:	43 00 00 00 	addiu $6,$6,4
  40191c:	04 00 06 06 
  401920:	43 00 00 00 	addiu $5,$5,4
  401924:	04 00 05 05 
  401928:	5b 00 00 00 	slt $2,$16,$17
  40192c:	00 02 11 10 
  401930:	06 00 00 00 	bne $2,$0,4018b8 <KeyExpansion+0x1c0>
  401934:	e0 ff 00 02 
  401938:	43 00 00 00 	addiu $2,$7,1
  40193c:	01 00 02 07 
  401940:	46 00 00 00 	mult $11,$2
  401944:	00 00 02 0b 
  401948:	4c 00 00 00 	mflo $3
  40194c:	00 03 00 00 
  401950:	42 00 00 00 	addu $16,$0,$17
  401954:	00 10 11 00 
  401958:	5b 00 00 00 	slt $2,$16,$3
  40195c:	00 02 03 10 
  401960:	05 00 00 00 	beq $2,$0,401af8 <KeyExpansion+0x400>
  401964:	64 00 00 02 
  401968:	43 00 00 00 	addiu $22,$29,16
  40196c:	10 00 16 1d 
  401970:	5c 00 00 00 	slti $21,$16,7
  401974:	07 00 15 10 
  401978:	43 00 00 00 	addiu $23,$0,4
  40197c:	04 00 17 00 
  401980:	42 00 00 00 	addu $20,$0,$3
  401984:	00 14 03 00 
  401988:	55 00 00 00 	sll $2,$16,0x2
  40198c:	02 02 10 00 
  401990:	42 00 00 00 	addu $18,$2,$19
  401994:	00 12 13 02 
  401998:	48 00 00 00 	div $0,$16,$17
  40199c:	00 00 11 10 
  4019a0:	06 00 00 00 	bne $17,$0,4019b0 <KeyExpansion+0x2b8>
  4019a4:	02 00 00 11 
  4019a8:	a1 00 00 00 	break 
  4019ac:	07 00 00 00 
  4019b0:	43 00 00 00 	addiu $1,$0,-1
  4019b4:	ff ff 01 00 
  4019b8:	06 00 00 00 	bne $17,$1,4019d8 <KeyExpansion+0x2e0>
  4019bc:	06 00 01 11 
  4019c0:	a2 00 00 00 	lui $1,32768
  4019c4:	00 80 01 00 
  4019c8:	06 00 00 00 	bne $16,$1,4019d8 <KeyExpansion+0x2e0>
  4019cc:	02 00 01 10 
  4019d0:	a1 00 00 00 	break 
  4019d4:	06 00 00 00 
  4019d8:	4a 00 00 00 	mfhi $3
  4019dc:	00 03 00 00 
  4019e0:	28 00 00 00 	lw $4,-4($18)
  4019e4:	fc ff 04 12 
  4019e8:	06 00 00 00 	bne $3,$0,401a88 <KeyExpansion+0x390>
  4019ec:	26 00 00 03 
  4019f0:	55 00 00 00 	sll $2,$4,0x8
  4019f4:	08 02 04 00 
  4019f8:	57 00 00 00 	srl $4,$4,0x18
  4019fc:	18 04 04 00 
  401a00:	50 00 00 00 	or $4,$2,$4
  401a04:	00 04 04 02 
  401a08:	02 00 00 00 	jal 4015e0 <SubWord>
  401a0c:	78 05 10 00 
  401a10:	43 00 00 00 	addiu $3,$16,-1
  401a14:	ff ff 03 10 
  401a18:	48 00 00 00 	div $0,$3,$17
  401a1c:	00 00 11 03 
  401a20:	06 00 00 00 	bne $17,$0,401a30 <KeyExpansion+0x338>
  401a24:	02 00 00 11 
  401a28:	a1 00 00 00 	break 
  401a2c:	07 00 00 00 
  401a30:	43 00 00 00 	addiu $1,$0,-1
  401a34:	ff ff 01 00 
  401a38:	06 00 00 00 	bne $17,$1,401a58 <KeyExpansion+0x360>
  401a3c:	06 00 01 11 
  401a40:	a2 00 00 00 	lui $1,32768
  401a44:	00 80 01 00 
  401a48:	06 00 00 00 	bne $3,$1,401a58 <KeyExpansion+0x360>
  401a4c:	02 00 01 03 
  401a50:	a1 00 00 00 	break 
  401a54:	06 00 00 00 
  401a58:	4c 00 00 00 	mflo $3
  401a5c:	00 03 00 00 
  401a60:	55 00 00 00 	sll $3,$3,0x2
  401a64:	02 03 03 00 
  401a68:	42 00 00 00 	addu $3,$3,$22
  401a6c:	00 03 16 03 
  401a70:	28 00 00 00 	lw $3,0($3)
  401a74:	00 00 03 03 
  401a78:	52 00 00 00 	xor $4,$2,$3
  401a7c:	00 04 03 02 
  401a80:	01 00 00 00 	j 401aa8 <KeyExpansion+0x3b0>
  401a84:	aa 06 10 00 
  401a88:	06 00 00 00 	bne $21,$0,401aa8 <KeyExpansion+0x3b0>
  401a8c:	06 00 00 15 
  401a90:	06 00 00 00 	bne $3,$23,401aa8 <KeyExpansion+0x3b0>
  401a94:	04 00 17 03 
  401a98:	02 00 00 00 	jal 4015e0 <SubWord>
  401a9c:	78 05 10 00 
  401aa0:	42 00 00 00 	addu $4,$0,$2
  401aa4:	00 04 02 00 
  401aa8:	45 00 00 00 	subu $2,$16,$17
  401aac:	00 02 11 10 
  401ab0:	55 00 00 00 	sll $2,$2,0x2
  401ab4:	02 02 02 00 
  401ab8:	42 00 00 00 	addu $2,$2,$19
  401abc:	00 02 13 02 
  401ac0:	28 00 00 00 	lw $2,0($2)
  401ac4:	00 00 02 02 
  401ac8:	43 00 00 00 	addiu $16,$16,1
  401acc:	01 00 10 10 
  401ad0:	52 00 00 00 	xor $2,$2,$4
  401ad4:	00 02 04 02 
  401ad8:	34 00 00 00 	sw $2,0($18)
  401adc:	00 00 02 12 
  401ae0:	43 00 00 00 	addiu $18,$18,4
  401ae4:	04 00 12 12 
  401ae8:	5b 00 00 00 	slt $2,$16,$20
  401aec:	00 02 14 10 
  401af0:	06 00 00 00 	bne $2,$0,401998 <KeyExpansion+0x2a0>
  401af4:	a8 ff 00 02 
  401af8:	28 00 00 00 	lw $31,120($29)
  401afc:	78 00 1f 1d 
  401b00:	28 00 00 00 	lw $23,116($29)
  401b04:	74 00 17 1d 
  401b08:	28 00 00 00 	lw $22,112($29)
  401b0c:	70 00 16 1d 
  401b10:	28 00 00 00 	lw $21,108($29)
  401b14:	6c 00 15 1d 
  401b18:	28 00 00 00 	lw $20,104($29)
  401b1c:	68 00 14 1d 
  401b20:	28 00 00 00 	lw $19,100($29)
  401b24:	64 00 13 1d 
  401b28:	28 00 00 00 	lw $18,96($29)
  401b2c:	60 00 12 1d 
  401b30:	28 00 00 00 	lw $17,92($29)
  401b34:	5c 00 11 1d 
  401b38:	28 00 00 00 	lw $16,88($29)
  401b3c:	58 00 10 1d 
  401b40:	43 00 00 00 	addiu $29,$29,128
  401b44:	80 00 1d 1d 
  401b48:	03 00 00 00 	jr $31
  401b4c:	00 00 00 1f 

00401b50 <aes_encrypt>:
  401b50:	43 00 00 00 	addiu $29,$29,-48
  401b54:	d0 ff 1d 1d 
  401b58:	34 00 00 00 	sw $31,40($29)
  401b5c:	28 00 1f 1d 
  401b60:	34 00 00 00 	sw $17,36($29)
  401b64:	24 00 11 1d 
  401b68:	34 00 00 00 	sw $16,32($29)
  401b6c:	20 00 10 1d 
  401b70:	22 00 00 00 	lbu $2,0($4)
  401b74:	00 00 02 04 
  401b78:	30 00 00 00 	sb $2,16($29)
  401b7c:	10 00 02 1d 
  401b80:	22 00 00 00 	lbu $2,1($4)
  401b84:	01 00 02 04 
  401b88:	30 00 00 00 	sb $2,20($29)
  401b8c:	14 00 02 1d 
  401b90:	22 00 00 00 	lbu $2,2($4)
  401b94:	02 00 02 04 
  401b98:	30 00 00 00 	sb $2,24($29)
  401b9c:	18 00 02 1d 
  401ba0:	22 00 00 00 	lbu $2,3($4)
  401ba4:	03 00 02 04 
  401ba8:	30 00 00 00 	sb $2,28($29)
  401bac:	1c 00 02 1d 
  401bb0:	22 00 00 00 	lbu $2,4($4)
  401bb4:	04 00 02 04 
  401bb8:	30 00 00 00 	sb $2,17($29)
  401bbc:	11 00 02 1d 
  401bc0:	22 00 00 00 	lbu $2,5($4)
  401bc4:	05 00 02 04 
  401bc8:	30 00 00 00 	sb $2,21($29)
  401bcc:	15 00 02 1d 
  401bd0:	22 00 00 00 	lbu $2,6($4)
  401bd4:	06 00 02 04 
  401bd8:	30 00 00 00 	sb $2,25($29)
  401bdc:	19 00 02 1d 
  401be0:	22 00 00 00 	lbu $2,7($4)
  401be4:	07 00 02 04 
  401be8:	30 00 00 00 	sb $2,29($29)
  401bec:	1d 00 02 1d 
  401bf0:	22 00 00 00 	lbu $2,8($4)
  401bf4:	08 00 02 04 
  401bf8:	30 00 00 00 	sb $2,18($29)
  401bfc:	12 00 02 1d 
  401c00:	22 00 00 00 	lbu $2,9($4)
  401c04:	09 00 02 04 
  401c08:	30 00 00 00 	sb $2,22($29)
  401c0c:	16 00 02 1d 
  401c10:	22 00 00 00 	lbu $2,10($4)
  401c14:	0a 00 02 04 
  401c18:	30 00 00 00 	sb $2,26($29)
  401c1c:	1a 00 02 1d 
  401c20:	22 00 00 00 	lbu $2,11($4)
  401c24:	0b 00 02 04 
  401c28:	30 00 00 00 	sb $2,30($29)
  401c2c:	1e 00 02 1d 
  401c30:	22 00 00 00 	lbu $2,12($4)
  401c34:	0c 00 02 04 
  401c38:	30 00 00 00 	sb $2,19($29)
  401c3c:	13 00 02 1d 
  401c40:	22 00 00 00 	lbu $2,13($4)
  401c44:	0d 00 02 04 
  401c48:	30 00 00 00 	sb $2,23($29)
  401c4c:	17 00 02 1d 
  401c50:	22 00 00 00 	lbu $2,14($4)
  401c54:	0e 00 02 04 
  401c58:	42 00 00 00 	addu $16,$0,$5
  401c5c:	00 10 05 00 
  401c60:	30 00 00 00 	sb $2,27($29)
  401c64:	1b 00 02 1d 
  401c68:	22 00 00 00 	lbu $2,15($4)
  401c6c:	0f 00 02 04 
  401c70:	42 00 00 00 	addu $17,$0,$6
  401c74:	00 11 06 00 
  401c78:	42 00 00 00 	addu $5,$0,$17
  401c7c:	00 05 11 00 
  401c80:	43 00 00 00 	addiu $4,$29,16
  401c84:	10 00 04 1d 
  401c88:	30 00 00 00 	sb $2,31($29)
  401c8c:	1f 00 02 1d 
  401c90:	02 00 00 00 	jal 4001f0 <AddRoundKey>
  401c94:	7c 00 10 00 
  401c98:	43 00 00 00 	addiu $4,$29,16
  401c9c:	10 00 04 1d 
  401ca0:	02 00 00 00 	jal 400508 <SubBytes>
  401ca4:	42 01 10 00 
  401ca8:	43 00 00 00 	addiu $4,$29,16
  401cac:	10 00 04 1d 
  401cb0:	02 00 00 00 	jal 4008a0 <ShiftRows>
  401cb4:	28 02 10 00 
  401cb8:	43 00 00 00 	addiu $4,$29,16
  401cbc:	10 00 04 1d 
  401cc0:	02 00 00 00 	jal 400968 <MixColumns>
  401cc4:	5a 02 10 00 
  401cc8:	43 00 00 00 	addiu $4,$29,16
  401ccc:	10 00 04 1d 
  401cd0:	43 00 00 00 	addiu $5,$17,16
  401cd4:	10 00 05 11 
  401cd8:	02 00 00 00 	jal 4001f0 <AddRoundKey>
  401cdc:	7c 00 10 00 
  401ce0:	22 00 00 00 	lbu $2,16($29)
  401ce4:	10 00 02 1d 
  401ce8:	30 00 00 00 	sb $2,0($16)
  401cec:	00 00 02 10 
  401cf0:	22 00 00 00 	lbu $2,20($29)
  401cf4:	14 00 02 1d 
  401cf8:	30 00 00 00 	sb $2,1($16)
  401cfc:	01 00 02 10 
  401d00:	22 00 00 00 	lbu $2,24($29)
  401d04:	18 00 02 1d 
  401d08:	30 00 00 00 	sb $2,2($16)
  401d0c:	02 00 02 10 
  401d10:	22 00 00 00 	lbu $2,28($29)
  401d14:	1c 00 02 1d 
  401d18:	30 00 00 00 	sb $2,3($16)
  401d1c:	03 00 02 10 
  401d20:	22 00 00 00 	lbu $2,17($29)
  401d24:	11 00 02 1d 
  401d28:	30 00 00 00 	sb $2,4($16)
  401d2c:	04 00 02 10 
  401d30:	22 00 00 00 	lbu $2,21($29)
  401d34:	15 00 02 1d 
  401d38:	30 00 00 00 	sb $2,5($16)
  401d3c:	05 00 02 10 
  401d40:	22 00 00 00 	lbu $2,25($29)
  401d44:	19 00 02 1d 
  401d48:	30 00 00 00 	sb $2,6($16)
  401d4c:	06 00 02 10 
  401d50:	22 00 00 00 	lbu $2,29($29)
  401d54:	1d 00 02 1d 
  401d58:	30 00 00 00 	sb $2,7($16)
  401d5c:	07 00 02 10 
  401d60:	22 00 00 00 	lbu $2,18($29)
  401d64:	12 00 02 1d 
  401d68:	30 00 00 00 	sb $2,8($16)
  401d6c:	08 00 02 10 
  401d70:	22 00 00 00 	lbu $2,22($29)
  401d74:	16 00 02 1d 
  401d78:	30 00 00 00 	sb $2,9($16)
  401d7c:	09 00 02 10 
  401d80:	22 00 00 00 	lbu $2,26($29)
  401d84:	1a 00 02 1d 
  401d88:	30 00 00 00 	sb $2,10($16)
  401d8c:	0a 00 02 10 
  401d90:	22 00 00 00 	lbu $2,30($29)
  401d94:	1e 00 02 1d 
  401d98:	30 00 00 00 	sb $2,11($16)
  401d9c:	0b 00 02 10 
  401da0:	22 00 00 00 	lbu $2,19($29)
  401da4:	13 00 02 1d 
  401da8:	30 00 00 00 	sb $2,12($16)
  401dac:	0c 00 02 10 
  401db0:	22 00 00 00 	lbu $2,23($29)
  401db4:	17 00 02 1d 
  401db8:	30 00 00 00 	sb $2,13($16)
  401dbc:	0d 00 02 10 
  401dc0:	22 00 00 00 	lbu $2,27($29)
  401dc4:	1b 00 02 1d 
  401dc8:	30 00 00 00 	sb $2,14($16)
  401dcc:	0e 00 02 10 
  401dd0:	22 00 00 00 	lbu $2,31($29)
  401dd4:	1f 00 02 1d 
  401dd8:	30 00 00 00 	sb $2,15($16)
  401ddc:	0f 00 02 10 
  401de0:	28 00 00 00 	lw $31,40($29)
  401de4:	28 00 1f 1d 
  401de8:	28 00 00 00 	lw $17,36($29)
  401dec:	24 00 11 1d 
  401df0:	28 00 00 00 	lw $16,32($29)
  401df4:	20 00 10 1d 
  401df8:	43 00 00 00 	addiu $29,$29,48
  401dfc:	30 00 1d 1d 
  401e00:	03 00 00 00 	jr $31
  401e04:	00 00 00 1f 

00401e08 <main>:
  401e08:	43 00 00 00 	addiu $29,$29,-584
  401e0c:	b8 fd 1d 1d 
  401e10:	34 00 00 00 	sw $31,580($29)
  401e14:	44 02 1f 1d 
  401e18:	34 00 00 00 	sw $16,576($29)
  401e1c:	40 02 10 1d 
  401e20:	02 00 00 00 	jal 402168 <__main>
  401e24:	5a 08 10 00 
  401e28:	a2 00 00 00 	lui $5,4096
  401e2c:	00 10 05 00 
  401e30:	43 00 00 00 	addiu $5,$5,572
  401e34:	3c 02 05 05 
  401e38:	2c 00 00 00 	lwl $2,3($5)
  401e3c:	03 00 02 05 
  401e40:	2d 00 00 00 	lwr $2,0($5)
  401e44:	00 00 02 05 
  401e48:	2c 00 00 00 	lwl $3,7($5)
  401e4c:	07 00 03 05 
  401e50:	2d 00 00 00 	lwr $3,4($5)
  401e54:	04 00 03 05 
  401e58:	2c 00 00 00 	lwl $4,11($5)
  401e5c:	0b 00 04 05 
  401e60:	2d 00 00 00 	lwr $4,8($5)
  401e64:	08 00 04 05 
  401e68:	39 00 00 00 	swl $2,19($29)
  401e6c:	13 00 02 1d 
  401e70:	3a 00 00 00 	swr $2,16($29)
  401e74:	10 00 02 1d 
  401e78:	39 00 00 00 	swl $3,23($29)
  401e7c:	17 00 03 1d 
  401e80:	3a 00 00 00 	swr $3,20($29)
  401e84:	14 00 03 1d 
  401e88:	39 00 00 00 	swl $4,27($29)
  401e8c:	1b 00 04 1d 
  401e90:	3a 00 00 00 	swr $4,24($29)
  401e94:	18 00 04 1d 
  401e98:	2c 00 00 00 	lwl $2,15($5)
  401e9c:	0f 00 02 05 
  401ea0:	2d 00 00 00 	lwr $2,12($5)
  401ea4:	0c 00 02 05 
  401ea8:	39 00 00 00 	swl $2,31($29)
  401eac:	1f 00 02 1d 
  401eb0:	3a 00 00 00 	swr $2,28($29)
  401eb4:	1c 00 02 1d 
  401eb8:	a2 00 00 00 	lui $5,4096
  401ebc:	00 10 05 00 
  401ec0:	43 00 00 00 	addiu $5,$5,588
  401ec4:	4c 02 05 05 
  401ec8:	2c 00 00 00 	lwl $2,3($5)
  401ecc:	03 00 02 05 
  401ed0:	2d 00 00 00 	lwr $2,0($5)
  401ed4:	00 00 02 05 
  401ed8:	2c 00 00 00 	lwl $3,7($5)
  401edc:	07 00 03 05 
  401ee0:	2d 00 00 00 	lwr $3,4($5)
  401ee4:	04 00 03 05 
  401ee8:	2c 00 00 00 	lwl $4,11($5)
  401eec:	0b 00 04 05 
  401ef0:	2d 00 00 00 	lwr $4,8($5)
  401ef4:	08 00 04 05 
  401ef8:	39 00 00 00 	swl $2,547($29)
  401efc:	23 02 02 1d 
  401f00:	3a 00 00 00 	swr $2,544($29)
  401f04:	20 02 02 1d 
  401f08:	39 00 00 00 	swl $3,551($29)
  401f0c:	27 02 03 1d 
  401f10:	3a 00 00 00 	swr $3,548($29)
  401f14:	24 02 03 1d 
  401f18:	39 00 00 00 	swl $4,555($29)
  401f1c:	2b 02 04 1d 
  401f20:	3a 00 00 00 	swr $4,552($29)
  401f24:	28 02 04 1d 
  401f28:	2c 00 00 00 	lwl $2,15($5)
  401f2c:	0f 00 02 05 
  401f30:	2d 00 00 00 	lwr $2,12($5)
  401f34:	0c 00 02 05 
  401f38:	39 00 00 00 	swl $2,559($29)
  401f3c:	2f 02 02 1d 
  401f40:	3a 00 00 00 	swr $2,556($29)
  401f44:	2c 02 02 1d 
  401f48:	43 00 00 00 	addiu $4,$29,16
  401f4c:	10 00 04 1d 
  401f50:	43 00 00 00 	addiu $16,$29,32
  401f54:	20 00 10 1d 
  401f58:	42 00 00 00 	addu $5,$0,$16
  401f5c:	00 05 10 00 
  401f60:	43 00 00 00 	addiu $6,$0,128
  401f64:	80 00 06 00 
  401f68:	02 00 00 00 	jal 4016f8 <KeyExpansion>
  401f6c:	be 05 10 00 
  401f70:	43 00 00 00 	addiu $4,$29,544
  401f74:	20 02 04 1d 
  401f78:	43 00 00 00 	addiu $5,$29,560
  401f7c:	30 02 05 1d 
  401f80:	42 00 00 00 	addu $6,$0,$16
  401f84:	00 06 10 00 
  401f88:	43 00 00 00 	addiu $7,$0,128
  401f8c:	80 00 07 00 
  401f90:	02 00 00 00 	jal 401b50 <aes_encrypt>
  401f94:	d4 06 10 00 
  401f98:	28 00 00 00 	lw $31,580($29)
  401f9c:	44 02 1f 1d 
  401fa0:	28 00 00 00 	lw $16,576($29)
  401fa4:	40 02 10 1d 
  401fa8:	43 00 00 00 	addiu $29,$29,584
  401fac:	48 02 1d 1d 
  401fb0:	03 00 00 00 	jr $31
  401fb4:	00 00 00 1f
