004001f0 <KeyExpansion>:
  4001f0:	43 00 00 00 	addiu $29,$29,-72
  4001f4:	b8 ff 1d 1d 
  4001f8:	42 00 00 00 	addu $10,$0,$5
  4001fc:	00 0a 05 00 
  400200:	42 00 00 00 	addu $8,$0,$29
  400204:	00 08 1d 00 
  400208:	a2 00 00 00 	lui $7,4096
  40020c:	00 10 07 00 
  400210:	43 00 00 00 	addiu $7,$7,512
  400214:	00 02 07 07 
  400218:	43 00 00 00 	addiu $9,$7,48
  40021c:	30 00 09 07 
  400220:	28 00 00 00 	lw $2,0($7)
  400224:	00 00 02 07 
  400228:	28 00 00 00 	lw $3,4($7)
  40022c:	04 00 03 07 
  400230:	28 00 00 00 	lw $4,8($7)
  400234:	08 00 04 07 
  400238:	28 00 00 00 	lw $5,12($7)
  40023c:	0c 00 05 07 
  400240:	34 00 00 00 	sw $2,0($8)
  400244:	00 00 02 08 
  400248:	34 00 00 00 	sw $3,4($8)
  40024c:	04 00 03 08 
  400250:	34 00 00 00 	sw $4,8($8)
  400254:	08 00 04 08 
  400258:	34 00 00 00 	sw $5,12($8)
  40025c:	0c 00 05 08 
  400260:	43 00 00 00 	addiu $7,$7,16
  400264:	10 00 07 07 
  400268:	43 00 00 00 	addiu $8,$8,16
  40026c:	10 00 08 08 
  400270:	06 00 00 00 	bne $7,$9,400220 <KeyExpansion+0x30>
  400274:	ea ff 09 07 
  400278:	28 00 00 00 	lw $2,0($7)
  40027c:	00 00 02 07 
  400280:	28 00 00 00 	lw $3,4($7)
  400284:	04 00 03 07 
  400288:	28 00 00 00 	lw $4,8($7)
  40028c:	08 00 04 07 
  400290:	34 00 00 00 	sw $2,0($8)
  400294:	00 00 02 08 
  400298:	34 00 00 00 	sw $3,4($8)
  40029c:	04 00 03 08 
  4002a0:	34 00 00 00 	sw $4,8($8)
  4002a4:	08 00 04 08 
  4002a8:	43 00 00 00 	addiu $2,$0,192
  4002ac:	c0 00 02 00 
  4002b0:	05 00 00 00 	beq $6,$2,400308 <KeyExpansion+0x118>
  4002b4:	14 00 02 06 
  4002b8:	5c 00 00 00 	slti $2,$6,193
  4002bc:	c1 00 02 06 
  4002c0:	05 00 00 00 	beq $2,$0,4002e0 <KeyExpansion+0xf0>
  4002c4:	06 00 00 02 
  4002c8:	43 00 00 00 	addiu $2,$0,128
  4002cc:	80 00 02 00 
  4002d0:	05 00 00 00 	beq $6,$2,4002f8 <KeyExpansion+0x108>
  4002d4:	08 00 02 06 
  4002d8:	01 00 00 00 	j 400378 <KeyExpansion+0x188>
  4002dc:	de 00 10 00 
  4002e0:	43 00 00 00 	addiu $2,$0,256
  4002e4:	00 01 02 00 
  4002e8:	05 00 00 00 	beq $6,$2,400318 <KeyExpansion+0x128>
  4002ec:	0a 00 02 06 
  4002f0:	01 00 00 00 	j 400378 <KeyExpansion+0x188>
  4002f4:	de 00 10 00 
  4002f8:	43 00 00 00 	addiu $6,$0,4
  4002fc:	04 00 06 00 
  400300:	01 00 00 00 	j 400320 <KeyExpansion+0x130>
  400304:	c8 00 10 00 
  400308:	43 00 00 00 	addiu $6,$0,6
  40030c:	06 00 06 00 
  400310:	01 00 00 00 	j 400320 <KeyExpansion+0x130>
  400314:	c8 00 10 00 
  400318:	43 00 00 00 	addiu $6,$0,8
  40031c:	08 00 06 00 
  400320:	42 00 00 00 	addu $3,$0,$0
  400324:	00 03 00 00 
  400328:	05 00 00 00 	beq $6,$0,400378 <KeyExpansion+0x188>
  40032c:	12 00 00 06 
  400330:	42 00 00 00 	addu $5,$0,$10
  400334:	00 05 0a 00 
  400338:	42 00 00 00 	addu $4,$0,$29
  40033c:	00 04 1d 00 
  400340:	28 00 00 00 	lw $2,-4($4)
  400344:	fc ff 02 04 
  400348:	43 00 00 00 	addiu $3,$3,1
  40034c:	01 00 03 03 
  400350:	34 00 00 00 	sw $2,0($5)
  400354:	00 00 02 05 
  400358:	43 00 00 00 	addiu $5,$5,4
  40035c:	04 00 05 05 
  400360:	43 00 00 00 	addiu $4,$4,4
  400364:	04 00 04 04 
  400368:	5b 00 00 00 	slt $2,$3,$6
  40036c:	00 02 06 03 
  400370:	06 00 00 00 	bne $2,$0,400340 <KeyExpansion+0x150>
  400374:	f2 ff 00 02 
  400378:	43 00 00 00 	addiu $29,$29,72
  40037c:	48 00 1d 1d 
  400380:	03 00 00 00 	jr $31
  400384:	00 00 00 1f 

00400388 <main>:
  400388:	43 00 00 00 	addiu $29,$29,-648
  40038c:	78 fd 1d 1d 
  400390:	34 00 00 00 	sw $31,644($29)
  400394:	84 02 1f 1d 
  400398:	34 00 00 00 	sw $16,640($29)
  40039c:	80 02 10 1d 
  4003a0:	02 00 00 00 	jal 400bd8 <__main>
  4003a4:	f6 02 10 00 
  4003a8:	43 00 00 00 	addiu $9,$29,32
  4003ac:	20 00 09 1d 
  4003b0:	43 00 00 00 	addiu $8,$29,576
  4003b4:	40 02 08 1d 
  4003b8:	42 00 00 00 	addu $7,$0,$8
  4003bc:	00 07 08 00 
  4003c0:	a2 00 00 00 	lui $6,4096
  4003c4:	00 10 06 00 
  4003c8:	43 00 00 00 	addiu $6,$6,512
  4003cc:	00 02 06 06 
  4003d0:	43 00 00 00 	addiu $10,$6,48
  4003d4:	30 00 0a 06 
  4003d8:	43 00 00 00 	addiu $2,$0,10
  4003dc:	0a 00 02 00 
  4003e0:	30 00 00 00 	sb $2,16($29)
  4003e4:	10 00 02 1d 
  4003e8:	43 00 00 00 	addiu $2,$0,16
  4003ec:	10 00 02 00 
  4003f0:	30 00 00 00 	sb $2,17($29)
  4003f4:	11 00 02 1d 
  4003f8:	43 00 00 00 	addiu $2,$0,32
  4003fc:	20 00 02 00 
  400400:	30 00 00 00 	sb $2,18($29)
  400404:	12 00 02 1d 
  400408:	43 00 00 00 	addiu $2,$0,35
  40040c:	23 00 02 00 
  400410:	30 00 00 00 	sb $2,19($29)
  400414:	13 00 02 1d 
  400418:	43 00 00 00 	addiu $2,$0,103
  40041c:	67 00 02 00 
  400420:	30 00 00 00 	sb $2,20($29)
  400424:	14 00 02 1d 
  400428:	43 00 00 00 	addiu $2,$0,84
  40042c:	54 00 02 00 
  400430:	30 00 00 00 	sb $2,21($29)
  400434:	15 00 02 1d 
  400438:	43 00 00 00 	addiu $2,$0,163
  40043c:	a3 00 02 00 
  400440:	30 00 00 00 	sb $2,22($29)
  400444:	16 00 02 1d 
  400448:	43 00 00 00 	addiu $2,$0,228
  40044c:	e4 00 02 00 
  400450:	30 00 00 00 	sb $2,23($29)
  400454:	17 00 02 1d 
  400458:	43 00 00 00 	addiu $2,$0,23
  40045c:	17 00 02 00 
  400460:	30 00 00 00 	sb $2,24($29)
  400464:	18 00 02 1d 
  400468:	43 00 00 00 	addiu $2,$0,165
  40046c:	a5 00 02 00 
  400470:	30 00 00 00 	sb $2,25($29)
  400474:	19 00 02 1d 
  400478:	43 00 00 00 	addiu $2,$0,211
  40047c:	d3 00 02 00 
  400480:	30 00 00 00 	sb $2,26($29)
  400484:	1a 00 02 1d 
  400488:	43 00 00 00 	addiu $2,$0,97
  40048c:	61 00 02 00 
  400490:	30 00 00 00 	sb $2,27($29)
  400494:	1b 00 02 1d 
  400498:	43 00 00 00 	addiu $2,$0,33
  40049c:	21 00 02 00 
  4004a0:	30 00 00 00 	sb $2,28($29)
  4004a4:	1c 00 02 1d 
  4004a8:	43 00 00 00 	addiu $2,$0,36
  4004ac:	24 00 02 00 
  4004b0:	30 00 00 00 	sb $2,29($29)
  4004b4:	1d 00 02 1d 
  4004b8:	43 00 00 00 	addiu $2,$0,112
  4004bc:	70 00 02 00 
  4004c0:	30 00 00 00 	sb $2,30($29)
  4004c4:	1e 00 02 1d 
  4004c8:	43 00 00 00 	addiu $2,$0,69
  4004cc:	45 00 02 00 
  4004d0:	30 00 00 00 	sb $2,31($29)
  4004d4:	1f 00 02 1d 
  4004d8:	28 00 00 00 	lw $2,0($6)
  4004dc:	00 00 02 06 
  4004e0:	28 00 00 00 	lw $3,4($6)
  4004e4:	04 00 03 06 
  4004e8:	28 00 00 00 	lw $4,8($6)
  4004ec:	08 00 04 06 
  4004f0:	28 00 00 00 	lw $5,12($6)
  4004f4:	0c 00 05 06 
  4004f8:	34 00 00 00 	sw $2,0($7)
  4004fc:	00 00 02 07 
  400500:	34 00 00 00 	sw $3,4($7)
  400504:	04 00 03 07 
  400508:	34 00 00 00 	sw $4,8($7)
  40050c:	08 00 04 07 
  400510:	34 00 00 00 	sw $5,12($7)
  400514:	0c 00 05 07 
  400518:	43 00 00 00 	addiu $6,$6,16
  40051c:	10 00 06 06 
  400520:	43 00 00 00 	addiu $7,$7,16
  400524:	10 00 07 07 
  400528:	06 00 00 00 	bne $6,$10,4004d8 <main+0x150>
  40052c:	ea ff 0a 06 
  400530:	28 00 00 00 	lw $2,0($6)
  400534:	00 00 02 06 
  400538:	28 00 00 00 	lw $3,4($6)
  40053c:	04 00 03 06 
  400540:	28 00 00 00 	lw $4,8($6)
  400544:	08 00 04 06 
  400548:	34 00 00 00 	sw $2,0($7)
  40054c:	00 00 02 07 
  400550:	34 00 00 00 	sw $3,4($7)
  400554:	04 00 03 07 
  400558:	34 00 00 00 	sw $4,8($7)
  40055c:	08 00 04 07 
  400560:	43 00 00 00 	addiu $6,$0,4
  400564:	04 00 06 00 
  400568:	42 00 00 00 	addu $5,$0,$0
  40056c:	00 05 00 00 
  400570:	42 00 00 00 	addu $4,$0,$9
  400574:	00 04 09 00 
  400578:	42 00 00 00 	addu $3,$0,$8
  40057c:	00 03 08 00 
  400580:	28 00 00 00 	lw $2,-4($3)
  400584:	fc ff 02 03 
  400588:	43 00 00 00 	addiu $5,$5,1
  40058c:	01 00 05 05 
  400590:	34 00 00 00 	sw $2,0($4)
  400594:	00 00 02 04 
  400598:	43 00 00 00 	addiu $4,$4,4
  40059c:	04 00 04 04 
  4005a0:	43 00 00 00 	addiu $3,$3,4
  4005a4:	04 00 03 03 
  4005a8:	5b 00 00 00 	slt $2,$5,$6
  4005ac:	00 02 06 05 
  4005b0:	06 00 00 00 	bne $2,$0,400580 <main+0x1f8>
  4005b4:	f2 ff 00 02 
  4005b8:	28 00 00 00 	lw $5,32($29)
  4005bc:	20 00 05 1d 
  4005c0:	43 00 00 00 	addiu $16,$28,-32768
  4005c4:	00 80 10 1c 
  4005c8:	42 00 00 00 	addu $4,$0,$16
  4005cc:	00 04 10 00 
  4005d0:	02 00 00 00 	jal 400e40 <printf>
  4005d4:	90 03 10 00 
  4005d8:	28 00 00 00 	lw $5,36($29)
  4005dc:	24 00 05 1d 
  4005e0:	42 00 00 00 	addu $4,$0,$16
  4005e4:	00 04 10 00 
  4005e8:	02 00 00 00 	jal 400e40 <printf>
  4005ec:	90 03 10 00 
  4005f0:	28 00 00 00 	lw $5,40($29)
  4005f4:	28 00 05 1d 
  4005f8:	42 00 00 00 	addu $4,$0,$16
  4005fc:	00 04 10 00 
  400600:	02 00 00 00 	jal 400e40 <printf>
  400604:	90 03 10 00 
  400608:	28 00 00 00 	lw $5,44($29)
  40060c:	2c 00 05 1d 
  400610:	42 00 00 00 	addu $4,$0,$16
  400614:	00 04 10 00 
  400618:	02 00 00 00 	jal 400e40 <printf>
  40061c:	90 03 10 00 
  400620:	28 00 00 00 	lw $5,48($29)
  400624:	30 00 05 1d 
  400628:	42 00 00 00 	addu $4,$0,$16
  40062c:	00 04 10 00 
  400630:	02 00 00 00 	jal 400e40 <printf>
  400634:	90 03 10 00 
  400638:	28 00 00 00 	lw $5,52($29)
  40063c:	34 00 05 1d 
  400640:	42 00 00 00 	addu $4,$0,$16
  400644:	00 04 10 00 
  400648:	02 00 00 00 	jal 400e40 <printf>
  40064c:	90 03 10 00 
  400650:	28 00 00 00 	lw $5,56($29)
  400654:	38 00 05 1d 
  400658:	42 00 00 00 	addu $4,$0,$16
  40065c:	00 04 10 00 
  400660:	02 00 00 00 	jal 400e40 <printf>
  400664:	90 03 10 00 
  400668:	28 00 00 00 	lw $5,60($29)
  40066c:	3c 00 05 1d 
  400670:	42 00 00 00 	addu $4,$0,$16
  400674:	00 04 10 00 
  400678:	02 00 00 00 	jal 400e40 <printf>
  40067c:	90 03 10 00 
  400680:	28 00 00 00 	lw $5,64($29)
  400684:	40 00 05 1d 
  400688:	42 00 00 00 	addu $4,$0,$16
  40068c:	00 04 10 00 
  400690:	02 00 00 00 	jal 400e40 <printf>
  400694:	90 03 10 00 
  400698:	28 00 00 00 	lw $5,68($29)
  40069c:	44 00 05 1d 
  4006a0:	42 00 00 00 	addu $4,$0,$16
  4006a4:	00 04 10 00 
  4006a8:	02 00 00 00 	jal 400e40 <printf>
  4006ac:	90 03 10 00 
  4006b0:	28 00 00 00 	lw $5,72($29)
  4006b4:	48 00 05 1d 
  4006b8:	42 00 00 00 	addu $4,$0,$16
  4006bc:	00 04 10 00 
  4006c0:	02 00 00 00 	jal 400e40 <printf>
  4006c4:	90 03 10 00 
  4006c8:	28 00 00 00 	lw $5,76($29)
  4006cc:	4c 00 05 1d 
  4006d0:	42 00 00 00 	addu $4,$0,$16
  4006d4:	00 04 10 00 
  4006d8:	02 00 00 00 	jal 400e40 <printf>
  4006dc:	90 03 10 00 
  4006e0:	28 00 00 00 	lw $5,80($29)
  4006e4:	50 00 05 1d 
  4006e8:	42 00 00 00 	addu $4,$0,$16
  4006ec:	00 04 10 00 
  4006f0:	02 00 00 00 	jal 400e40 <printf>
  4006f4:	90 03 10 00 
  4006f8:	28 00 00 00 	lw $5,84($29)
  4006fc:	54 00 05 1d 
  400700:	42 00 00 00 	addu $4,$0,$16
  400704:	00 04 10 00 
  400708:	02 00 00 00 	jal 400e40 <printf>
  40070c:	90 03 10 00 
  400710:	28 00 00 00 	lw $5,88($29)
  400714:	58 00 05 1d 
  400718:	42 00 00 00 	addu $4,$0,$16
  40071c:	00 04 10 00 
  400720:	02 00 00 00 	jal 400e40 <printf>
  400724:	90 03 10 00 
  400728:	28 00 00 00 	lw $5,92($29)
  40072c:	5c 00 05 1d 
  400730:	42 00 00 00 	addu $4,$0,$16
  400734:	00 04 10 00 
  400738:	02 00 00 00 	jal 400e40 <printf>
  40073c:	90 03 10 00 
  400740:	28 00 00 00 	lw $5,96($29)
  400744:	60 00 05 1d 
  400748:	42 00 00 00 	addu $4,$0,$16
  40074c:	00 04 10 00 
  400750:	02 00 00 00 	jal 400e40 <printf>
  400754:	90 03 10 00 
  400758:	28 00 00 00 	lw $5,100($29)
  40075c:	64 00 05 1d 
  400760:	42 00 00 00 	addu $4,$0,$16
  400764:	00 04 10 00 
  400768:	02 00 00 00 	jal 400e40 <printf>
  40076c:	90 03 10 00 
  400770:	28 00 00 00 	lw $5,104($29)
  400774:	68 00 05 1d 
  400778:	42 00 00 00 	addu $4,$0,$16
  40077c:	00 04 10 00 
  400780:	02 00 00 00 	jal 400e40 <printf>
  400784:	90 03 10 00 
  400788:	28 00 00 00 	lw $5,108($29)
  40078c:	6c 00 05 1d 
  400790:	42 00 00 00 	addu $4,$0,$16
  400794:	00 04 10 00 
  400798:	02 00 00 00 	jal 400e40 <printf>
  40079c:	90 03 10 00 
  4007a0:	28 00 00 00 	lw $5,112($29)
  4007a4:	70 00 05 1d 
  4007a8:	42 00 00 00 	addu $4,$0,$16
  4007ac:	00 04 10 00 
  4007b0:	02 00 00 00 	jal 400e40 <printf>
  4007b4:	90 03 10 00 
  4007b8:	28 00 00 00 	lw $5,116($29)
  4007bc:	74 00 05 1d 
  4007c0:	42 00 00 00 	addu $4,$0,$16
  4007c4:	00 04 10 00 
  4007c8:	02 00 00 00 	jal 400e40 <printf>
  4007cc:	90 03 10 00 
  4007d0:	28 00 00 00 	lw $5,120($29)
  4007d4:	78 00 05 1d 
  4007d8:	42 00 00 00 	addu $4,$0,$16
  4007dc:	00 04 10 00 
  4007e0:	02 00 00 00 	jal 400e40 <printf>
  4007e4:	90 03 10 00 
  4007e8:	28 00 00 00 	lw $5,124($29)
  4007ec:	7c 00 05 1d 
  4007f0:	42 00 00 00 	addu $4,$0,$16
  4007f4:	00 04 10 00 
  4007f8:	02 00 00 00 	jal 400e40 <printf>
  4007fc:	90 03 10 00 
  400800:	28 00 00 00 	lw $5,128($29)
  400804:	80 00 05 1d 
  400808:	42 00 00 00 	addu $4,$0,$16
  40080c:	00 04 10 00 
  400810:	02 00 00 00 	jal 400e40 <printf>
  400814:	90 03 10 00 
  400818:	28 00 00 00 	lw $5,132($29)
  40081c:	84 00 05 1d 
  400820:	42 00 00 00 	addu $4,$0,$16
  400824:	00 04 10 00 
  400828:	02 00 00 00 	jal 400e40 <printf>
  40082c:	90 03 10 00 
  400830:	28 00 00 00 	lw $5,136($29)
  400834:	88 00 05 1d 
  400838:	42 00 00 00 	addu $4,$0,$16
  40083c:	00 04 10 00 
  400840:	02 00 00 00 	jal 400e40 <printf>
  400844:	90 03 10 00 
  400848:	28 00 00 00 	lw $5,140($29)
  40084c:	8c 00 05 1d 
  400850:	42 00 00 00 	addu $4,$0,$16
  400854:	00 04 10 00 
  400858:	02 00 00 00 	jal 400e40 <printf>
  40085c:	90 03 10 00 
  400860:	28 00 00 00 	lw $5,144($29)
  400864:	90 00 05 1d 
  400868:	42 00 00 00 	addu $4,$0,$16
  40086c:	00 04 10 00 
  400870:	02 00 00 00 	jal 400e40 <printf>
  400874:	90 03 10 00 
  400878:	28 00 00 00 	lw $5,148($29)
  40087c:	94 00 05 1d 
  400880:	42 00 00 00 	addu $4,$0,$16
  400884:	00 04 10 00 
  400888:	02 00 00 00 	jal 400e40 <printf>
  40088c:	90 03 10 00 
  400890:	28 00 00 00 	lw $5,152($29)
  400894:	98 00 05 1d 
  400898:	42 00 00 00 	addu $4,$0,$16
  40089c:	00 04 10 00 
  4008a0:	02 00 00 00 	jal 400e40 <printf>
  4008a4:	90 03 10 00 
  4008a8:	28 00 00 00 	lw $5,156($29)
  4008ac:	9c 00 05 1d 
  4008b0:	42 00 00 00 	addu $4,$0,$16
  4008b4:	00 04 10 00 
  4008b8:	02 00 00 00 	jal 400e40 <printf>
  4008bc:	90 03 10 00 
  4008c0:	28 00 00 00 	lw $5,160($29)
  4008c4:	a0 00 05 1d 
  4008c8:	42 00 00 00 	addu $4,$0,$16
  4008cc:	00 04 10 00 
  4008d0:	02 00 00 00 	jal 400e40 <printf>
  4008d4:	90 03 10 00 
  4008d8:	28 00 00 00 	lw $5,164($29)
  4008dc:	a4 00 05 1d 
  4008e0:	42 00 00 00 	addu $4,$0,$16
  4008e4:	00 04 10 00 
  4008e8:	02 00 00 00 	jal 400e40 <printf>
  4008ec:	90 03 10 00 
  4008f0:	28 00 00 00 	lw $5,168($29)
  4008f4:	a8 00 05 1d 
  4008f8:	42 00 00 00 	addu $4,$0,$16
  4008fc:	00 04 10 00 
  400900:	02 00 00 00 	jal 400e40 <printf>
  400904:	90 03 10 00 
  400908:	28 00 00 00 	lw $5,172($29)
  40090c:	ac 00 05 1d 
  400910:	42 00 00 00 	addu $4,$0,$16
  400914:	00 04 10 00 
  400918:	02 00 00 00 	jal 400e40 <printf>
  40091c:	90 03 10 00 
  400920:	28 00 00 00 	lw $5,176($29)
  400924:	b0 00 05 1d 
  400928:	42 00 00 00 	addu $4,$0,$16
  40092c:	00 04 10 00 
  400930:	02 00 00 00 	jal 400e40 <printf>
  400934:	90 03 10 00 
  400938:	28 00 00 00 	lw $5,180($29)
  40093c:	b4 00 05 1d 
  400940:	42 00 00 00 	addu $4,$0,$16
  400944:	00 04 10 00 
  400948:	02 00 00 00 	jal 400e40 <printf>
  40094c:	90 03 10 00 
  400950:	28 00 00 00 	lw $5,184($29)
  400954:	b8 00 05 1d 
  400958:	42 00 00 00 	addu $4,$0,$16
  40095c:	00 04 10 00 
  400960:	02 00 00 00 	jal 400e40 <printf>
  400964:	90 03 10 00 
  400968:	28 00 00 00 	lw $5,188($29)
  40096c:	bc 00 05 1d 
  400970:	42 00 00 00 	addu $4,$0,$16
  400974:	00 04 10 00 
  400978:	02 00 00 00 	jal 400e40 <printf>
  40097c:	90 03 10 00 
  400980:	28 00 00 00 	lw $5,192($29)
  400984:	c0 00 05 1d 
  400988:	42 00 00 00 	addu $4,$0,$16
  40098c:	00 04 10 00 
  400990:	02 00 00 00 	jal 400e40 <printf>
  400994:	90 03 10 00 
  400998:	28 00 00 00 	lw $5,196($29)
  40099c:	c4 00 05 1d 
  4009a0:	42 00 00 00 	addu $4,$0,$16
  4009a4:	00 04 10 00 
  4009a8:	02 00 00 00 	jal 400e40 <printf>
  4009ac:	90 03 10 00 
  4009b0:	28 00 00 00 	lw $5,200($29)
  4009b4:	c8 00 05 1d 
  4009b8:	42 00 00 00 	addu $4,$0,$16
  4009bc:	00 04 10 00 
  4009c0:	02 00 00 00 	jal 400e40 <printf>
  4009c4:	90 03 10 00 
  4009c8:	28 00 00 00 	lw $5,204($29)
  4009cc:	cc 00 05 1d 
  4009d0:	42 00 00 00 	addu $4,$0,$16
  4009d4:	00 04 10 00 
  4009d8:	02 00 00 00 	jal 400e40 <printf>
  4009dc:	90 03 10 00 
  4009e0:	28 00 00 00 	lw $5,208($29)
  4009e4:	d0 00 05 1d 
  4009e8:	42 00 00 00 	addu $4,$0,$16
  4009ec:	00 04 10 00 
  4009f0:	02 00 00 00 	jal 400e40 <printf>
  4009f4:	90 03 10 00 
  4009f8:	28 00 00 00 	lw $5,212($29)
  4009fc:	d4 00 05 1d 
  400a00:	42 00 00 00 	addu $4,$0,$16
  400a04:	00 04 10 00 
  400a08:	02 00 00 00 	jal 400e40 <printf>
  400a0c:	90 03 10 00 
  400a10:	28 00 00 00 	lw $31,644($29)
  400a14:	84 02 1f 1d 
  400a18:	28 00 00 00 	lw $16,640($29)
  400a1c:	80 02 10 1d 
  400a20:	43 00 00 00 	addiu $29,$29,648
  400a24:	88 02 1d 1d 
  400a28:	03 00 00 00 	jr $31
  400a2c:	00 00 00 1f
